

Microchip Technology PIC18 LITE Macro Assembler V1.33 build 59893 
                                                                                               Sat Sep 26 00:13:17 2020

Microchip Technology Omniscient Code Generator (Lite mode) build 59893
     1                           	processor	18F45K22
     2                           	fnconf	rparam,??,?,0
     3                           	opt	pw 120
     4                           	opt	lm
     5                           	psect	idataCOMRAM,global,class=CODE,delta=1
     6                           	psect	smallconst,global,reloc=2,class=SMALLCONST,delta=1
     7                           	psect	cinit,global,reloc=2,class=CODE,delta=1
     8                           	psect	bssCOMRAM,global,class=COMRAM,space=1,delta=1
     9                           	psect	dataCOMRAM,global,class=COMRAM,space=1,delta=1
    10                           	psect	bssBANK0,global,class=BANK0,space=1,delta=1
    11                           	psect	bssBANK1,global,class=BANK1,space=1,delta=1
    12                           	psect	cstackBANK0,global,class=BANK0,space=1,delta=1
    13                           	psect	cstackCOMRAM,global,class=COMRAM,space=1,delta=1
    14                           	psect	text0,global,reloc=2,class=CODE,delta=1
    15                           	psect	text1,global,reloc=2,class=CODE,delta=1
    16                           	psect	text2,global,reloc=2,class=CODE,delta=1
    17                           	psect	text3,global,reloc=2,class=CODE,delta=1
    18                           	psect	text4,global,reloc=2,class=CODE,delta=1
    19                           	psect	text5,global,reloc=2,class=CODE,delta=1
    20                           	psect	text6,global,reloc=2,class=CODE,delta=1
    21                           	psect	text7,global,reloc=2,class=CODE,delta=1
    22                           	psect	text8,global,reloc=2,class=CODE,delta=1
    23                           	psect	text9,global,reloc=2,class=CODE,delta=1
    24                           	psect	text10,global,reloc=2,class=CODE,delta=1
    25                           	psect	text11,global,reloc=2,class=CODE,delta=1
    26                           	psect	text12,global,reloc=2,class=CODE,delta=1
    27                           	psect	text13,global,reloc=2,class=CODE,delta=1
    28                           	psect	text14,global,reloc=2,class=CODE,delta=1
    29                           	psect	text15,global,reloc=2,class=CODE,delta=1
    30                           	psect	text16,global,reloc=2,class=CODE,delta=1
    31                           	psect	text17,global,reloc=2,class=CODE,delta=1
    32                           	psect	text18,global,reloc=2,class=CODE,delta=1
    33                           	psect	text19,global,reloc=2,class=CODE,delta=1
    34                           	psect	text20,global,reloc=2,class=CODE,delta=1
    35                           	psect	text21,global,reloc=2,class=CODE,delta=1
    36                           	psect	text22,global,reloc=2,class=CODE,delta=1
    37                           	psect	text23,global,reloc=2,class=CODE,delta=1
    38                           	psect	text24,global,reloc=2,class=CODE,delta=1
    39                           	psect	text25,global,reloc=2,class=CODE,delta=1
    40                           	psect	intcode,global,reloc=2,class=CODE,delta=1
    41                           	psect	text27,global,reloc=2,class=CODE,delta=1
    42                           	psect	text28,global,reloc=2,class=CODE,delta=1
    43                           	psect	text29,global,reloc=2,class=CODE,delta=1
    44                           	psect	text30,global,reloc=2,class=CODE,delta=1
    45                           	psect	text31,global,reloc=2,class=CODE,delta=1
    46                           	psect	text32,global,reloc=2,class=CODE,delta=1
    47                           	psect	intsave_regs,global,class=BIGRAM,space=1,delta=1
    48                           	psect	rparam,global,class=COMRAM,space=1,delta=1
    49  0000                     
    50                           	psect	idataCOMRAM
    51  0018C2                     __pidataCOMRAM:
    52                           	opt stack 0
    53                           
    54                           ;initializer for _HMSec
    55  0018C2  0A                 	db	10
    56                           
    57                           ;initializer for _OneSec
    58  0018C3  64                 	db	100
    59                           
    60                           ;initializer for _TmrSec
    61  0018C4  3C                 	db	60
    62                           
    63                           ;initializer for _lcd_disp
    64  0018C5  0C                 	db	12
    65  0000                     _ADCON0	set	4034
    66  0000                     _ADCON0bits	set	4034
    67  0000                     _ADCON1	set	4033
    68  0000                     _ADCON2	set	4032
    69  0000                     _ADRESH	set	4036
    70  0000                     _ADRESL	set	4035
    71  0000                     _ANSELA	set	3896
    72  0000                     _ANSELB	set	3897
    73  0000                     _ANSELC	set	3898
    74  0000                     _ANSELD	set	3899
    75  0000                     _ANSELE	set	3900
    76  0000                     _BAUDCON1bits	set	4024
    77  0000                     _BAUDCON2bits	set	3952
    78  0000                     _CCP1CON	set	4029
    79  0000                     _CCP2CON	set	3942
    80  0000                     _CCP3CON	set	3933
    81  0000                     _CCP4CON	set	3927
    82  0000                     _CCPR1H	set	4031
    83  0000                     _CCPR1L	set	4030
    84  0000                     _CCPR2H	set	3944
    85  0000                     _CCPR2L	set	3943
    86  0000                     _CCPR3H	set	3935
    87  0000                     _CCPR3L	set	3934
    88  0000                     _CCPR4H	set	3929
    89  0000                     _CCPR4L	set	3928
    90  0000                     _CCPTMRS0bits	set	3913
    91  0000                     _CCPTMRS1bits	set	3912
    92  0000                     _ECCP1AS	set	4022
    93  0000                     _ECCP2AS	set	3940
    94  0000                     _ECCP3AS	set	3931
    95  0000                     _EEADR	set	4009
    96  0000                     _EECON1bits	set	4006
    97  0000                     _EECON2	set	4007
    98  0000                     _EEDATA	set	4008
    99  0000                     _INTCON2bits	set	4081
   100  0000                     _INTCON3bits	set	4080
   101  0000                     _INTCONbits	set	4082
   102  0000                     _LATA	set	3977
   103  0000                     _LATAbits	set	3977
   104  0000                     _LATB	set	3978
   105  0000                     _LATBbits	set	3978
   106  0000                     _LATC	set	3979
   107  0000                     _LATCbits	set	3979
   108  0000                     _LATD	set	3980
   109  0000                     _LATDbits	set	3980
   110  0000                     _LATE	set	3981
   111  0000                     _LATEbits	set	3981
   112  0000                     _OSCCON	set	4051
   113  0000                     _OSCCON2	set	4050
   114  0000                     _OSCTUNE	set	3995
   115  0000                     _PIE3bits	set	4003
   116  0000                     _PIR1bits	set	3998
   117  0000                     _PORTAbits	set	3968
   118  0000                     _PORTBbits	set	3969
   119  0000                     _PORTCbits	set	3970
   120  0000                     _PORTDbits	set	3971
   121  0000                     _PORTEbits	set	3972
   122  0000                     _PR2	set	4027
   123  0000                     _PSTR1CON	set	4025
   124  0000                     _PSTR2CON	set	3939
   125  0000                     _PSTR3CON	set	3930
   126  0000                     _PWM1CON	set	4023
   127  0000                     _PWM2CON	set	3941
   128  0000                     _PWM3CON	set	3932
   129  0000                     _RCONbits	set	4048
   130  0000                     _RCREG1	set	4014
   131  0000                     _RCREG2	set	3956
   132  0000                     _RCSTA	set	4011
   133  0000                     _RCSTA2	set	3953
   134  0000                     _RCSTA2bits	set	3953
   135  0000                     _SPBRG1	set	4015
   136  0000                     _SPBRG2	set	3957
   137  0000                     _SPBRGH	set	4016
   138  0000                     _SPBRGH2	set	3958
   139  0000                     _SSP1BUF	set	4041
   140  0000                     _SSPADD	set	4040
   141  0000                     _SSPCON1bits	set	4038
   142  0000                     _SSPCON2	set	4037
   143  0000                     _SSPCON2bits	set	4037
   144  0000                     _SSPSTATbits	set	4039
   145  0000                     _T0CON	set	4053
   146  0000                     _T1CON	set	4045
   147  0000                     _T1CONbits	set	4045
   148  0000                     _T1GCON	set	4044
   149  0000                     _T2CON	set	4026
   150  0000                     _T2CONbits	set	4026
   151  0000                     _TMR0H	set	4055
   152  0000                     _TMR0L	set	4054
   153  0000                     _TMR1H	set	4047
   154  0000                     _TMR1L	set	4046
   155  0000                     _TMR2	set	4028
   156  0000                     _TRISAbits	set	3986
   157  0000                     _TRISBbits	set	3987
   158  0000                     _TRISCbits	set	3988
   159  0000                     _TRISDbits	set	3989
   160  0000                     _TRISEbits	set	3990
   161  0000                     _TXREG	set	4013
   162  0000                     _TXREG2	set	3955
   163  0000                     _TXSTA	set	4012
   164  0000                     _TXSTA2	set	3954
   165  0000                     _VREFCON0	set	3906
   166  0000                     _PEIE	set	32662
   167  0000                     _PLLRDY	set	32407
   168  0000                     _RC2IE	set	32029
   169  0000                     _RC2IF	set	32037
   170  0000                     _RC2IP	set	32045
   171  0000                     _RCIE	set	31981
   172  0000                     _RCIF	set	31989
   173  0000                     _RCIP	set	31997
   174  0000                     _TMR0IE	set	32661
   175  0000                     _TMR0IF	set	32658
   176  0000                     _TMR0IP	set	32650
   177  0000                     _TX2IE	set	32028
   178  0000                     _TX2IF	set	32036
   179  0000                     _TX2IP	set	32044
   180  0000                     _TXIE	set	31980
   181  0000                     _TXIF	set	31988
   182  0000                     _TXIP	set	31996
   183                           
   184                           	psect	smallconst
   185  000600                     __psmallconst:
   186                           	opt stack 0
   187  000600  00                 	db	0
   188  000601                     __stringdata:
   189                           	opt stack 0
   190  000601                     STR_1:
   191  000601  50                 	db	80	;'P'
   192  000602  52                 	db	82	;'R'
   193  000603  45                 	db	69	;'E'
   194  000604  53                 	db	83	;'S'
   195  000605  53                 	db	83	;'S'
   196  000606  20                 	db	32
   197  000607  50                 	db	80	;'P'
   198  000608  42                 	db	66	;'B'
   199  000609  32                 	db	50	;'2'
   200  00060A  20                 	db	32
   201  00060B  74                 	db	116	;'t'
   202  00060C  6F                 	db	111	;'o'
   203  00060D  20                 	db	32
   204  00060E  53                 	db	83	;'S'
   205  00060F  54                 	db	84	;'T'
   206  000610  41                 	db	65	;'A'
   207  000611  52                 	db	82	;'R'
   208  000612  54                 	db	84	;'T'
   209  000613  00                 	db	0
   210  000614                     STR_2:
   211  000614  43                 	db	67	;'C'
   212  000615  68                 	db	104	;'h'
   213  000616  61                 	db	97	;'a'
   214  000617  72                 	db	114	;'r'
   215  000618  20                 	db	32
   216  000619  72                 	db	114	;'r'
   217  00061A  65                 	db	101	;'e'
   218  00061B  76                 	db	118	;'v'
   219  00061C  65                 	db	101	;'e'
   220  00061D  69                 	db	105	;'i'
   221  00061E  63                 	db	99	;'c'
   222  00061F  65                 	db	101	;'e'
   223  000620  64                 	db	100	;'d'
   224  000621  3A                 	db	58	;':'
   225  000622  25                 	db	37
   226  000623  63                 	db	99	;'c'
   227  000624  00                 	db	0
   228  000625                     __end_of__stringdata:
   229                           	opt stack 0
   230  000625  00                 	db	0	; dummy byte at the end
   231  0000                     
   232                           ; #config settings
   233                           
   234                           	psect	cinit
   235  0016B6                     __pcinit:
   236                           	opt stack 0
   237  0016B6                     start_initialization:
   238                           	opt stack 0
   239  0016B6                     __initialization:
   240                           	opt stack 0
   241                           
   242                           ; Clear objects allocated to BANK1 (192 bytes)
   243  0016B6  EE01  F000         	lfsr	0,__pbssBANK1
   244  0016BA  0EC0               	movlw	192
   245  0016BC                     clear_0:
   246  0016BC  6AEE               	clrf	postinc0,c
   247  0016BE  06E8               	decf	wreg,f,c
   248  0016C0  E1FD               	bnz	clear_0
   249                           
   250                           ; Clear objects allocated to BANK0 (141 bytes)
   251  0016C2  EE00  F060         	lfsr	0,__pbssBANK0
   252  0016C6  0E8D               	movlw	141
   253  0016C8                     clear_1:
   254  0016C8  6AEE               	clrf	postinc0,c
   255  0016CA  06E8               	decf	wreg,f,c
   256  0016CC  E1FD               	bnz	clear_1
   257                           
   258                           ; Clear objects allocated to COMRAM (46 bytes)
   259  0016CE  EE00  F001         	lfsr	0,__pbssCOMRAM
   260  0016D2  0E2E               	movlw	46
   261  0016D4                     clear_2:
   262  0016D4  6AEE               	clrf	postinc0,c
   263  0016D6  06E8               	decf	wreg,f,c
   264  0016D8  E1FD               	bnz	clear_2
   265                           
   266                           ; Initialize objects allocated to COMRAM (4 bytes)
   267                           ; load TBLPTR registers with __pidataCOMRAM
   268  0016DA  0EC2               	movlw	low __pidataCOMRAM
   269  0016DC  6EF6               	movwf	tblptrl,c
   270  0016DE  0E18               	movlw	high __pidataCOMRAM
   271  0016E0  6EF7               	movwf	tblptrh,c
   272  0016E2  0E00               	movlw	low (__pidataCOMRAM shr (0+16))
   273  0016E4  6EF8               	movwf	tblptru,c
   274  0016E6  EE00  F04B         	lfsr	0,__pdataCOMRAM
   275  0016EA  EE10 F004          	lfsr	1,4
   276  0016EE                     copy_data0:
   277  0016EE  0009               	tblrd		*+
   278  0016F0  CFF5 FFEE          	movff	tablat,postinc0
   279  0016F4  50E5               	movf	postdec1,w,c
   280  0016F6  50E1               	movf	fsr1l,w,c
   281  0016F8  E1FA               	bnz	copy_data0
   282  0016FA                     end_of_initialization:
   283                           	opt stack 0
   284  0016FA                     __end_of__initialization:
   285                           	opt stack 0
   286  0016FA  0E00               	movlw	low (__Lmediumconst shr (0+16))
   287  0016FC  6EF8               	movwf	tblptru,c
   288  0016FE  0100               	movlb	0
   289  001700  EF43  F00C         	goto	_main	;jump to C main() function
   290                           tblptru	equ	0xFF8
   291                           tblptrh	equ	0xFF7
   292                           tblptrl	equ	0xFF6
   293                           tablat	equ	0xFF5
   294                           postinc0	equ	0xFEE
   295                           wreg	equ	0xFE8
   296                           postdec1	equ	0xFE5
   297                           fsr1l	equ	0xFE1
   298                           
   299                           	psect	bssCOMRAM
   300  000001                     __pbssCOMRAM:
   301                           	opt stack 0
   302  000001                     _Flags:
   303                           	opt stack 0
   304  000001                     	ds	1
   305  000002                     _Task1:
   306                           	opt stack 0
   307  000002                     	ds	1
   308  000003                     _TimerFlag:
   309                           	opt stack 0
   310  000003                     	ds	1
   311  000004                     _TmrRxd1:
   312                           	opt stack 0
   313  000004                     	ds	1
   314  000005                     _TmrRxd2:
   315                           	opt stack 0
   316  000005                     	ds	1
   317  000006                     _data:
   318                           	opt stack 0
   319  000006                     	ds	1
   320  000007                     _keypad_col1:
   321                           	opt stack 0
   322  000007                     	ds	1
   323  000008                     _keypad_col2:
   324                           	opt stack 0
   325  000008                     	ds	1
   326  000009                     _keypad_col3:
   327                           	opt stack 0
   328  000009                     	ds	1
   329  00000A                     _keypad_col4:
   330                           	opt stack 0
   331  00000A                     	ds	1
   332  00000B                     _keypad_mode:
   333                           	opt stack 0
   334  00000B                     	ds	1
   335  00000C                     _keypad_row1:
   336                           	opt stack 0
   337  00000C                     	ds	1
   338  00000D                     _keypad_row2:
   339                           	opt stack 0
   340  00000D                     	ds	1
   341  00000E                     _keypad_row3:
   342                           	opt stack 0
   343  00000E                     	ds	1
   344  00000F                     _keypad_row4:
   345                           	opt stack 0
   346  00000F                     	ds	1
   347  000010                     _kstate:
   348                           	opt stack 0
   349  000010                     	ds	1
   350  000011                     _lcd_d0:
   351                           	opt stack 0
   352  000011                     	ds	1
   353  000012                     _lcd_d1:
   354                           	opt stack 0
   355  000012                     	ds	1
   356  000013                     _lcd_d2:
   357                           	opt stack 0
   358  000013                     	ds	1
   359  000014                     _lcd_d3:
   360                           	opt stack 0
   361  000014                     	ds	1
   362  000015                     _lcd_d4:
   363                           	opt stack 0
   364  000015                     	ds	1
   365  000016                     _lcd_d5:
   366                           	opt stack 0
   367  000016                     	ds	1
   368  000017                     _lcd_d6:
   369                           	opt stack 0
   370  000017                     	ds	1
   371  000018                     _lcd_d7:
   372                           	opt stack 0
   373  000018                     	ds	1
   374  000019                     _lcd_en:
   375                           	opt stack 0
   376  000019                     	ds	1
   377  00001A                     _lcd_mode:
   378                           	opt stack 0
   379  00001A                     	ds	1
   380  00001B                     _lcd_rs:
   381                           	opt stack 0
   382  00001B                     	ds	1
   383  00001C                     _spi_mode:
   384                           	opt stack 0
   385  00001C                     	ds	1
   386  00001D                     _uart1_cr_cnt:
   387                           	opt stack 0
   388  00001D                     	ds	1
   389  00001E                     _uart1_lf_cnt:
   390                           	opt stack 0
   391  00001E                     	ds	1
   392  00001F                     _uart1_rx_char:
   393                           	opt stack 0
   394  00001F                     	ds	1
   395  000020                     _uart1_rx_cnt:
   396                           	opt stack 0
   397  000020                     	ds	1
   398  000021                     _uart1_rx_pos:
   399                           	opt stack 0
   400  000021                     	ds	1
   401  000022                     _uart1_rx_ready:
   402                           	opt stack 0
   403  000022                     	ds	1
   404  000023                     _uart1_tx_cnt:
   405                           	opt stack 0
   406  000023                     	ds	1
   407  000024                     _uart1_tx_pos:
   408                           	opt stack 0
   409  000024                     	ds	1
   410  000025                     _uart2_cr_cnt:
   411                           	opt stack 0
   412  000025                     	ds	1
   413  000026                     _uart2_lf_cnt:
   414                           	opt stack 0
   415  000026                     	ds	1
   416  000027                     _uart2_rx_char:
   417                           	opt stack 0
   418  000027                     	ds	1
   419  000028                     _uart2_rx_cnt:
   420                           	opt stack 0
   421  000028                     	ds	1
   422  000029                     _uart2_rx_pos:
   423                           	opt stack 0
   424  000029                     	ds	1
   425  00002A                     _uart2_rx_ready:
   426                           	opt stack 0
   427  00002A                     	ds	1
   428  00002B                     _uart2_tx_cnt:
   429                           	opt stack 0
   430  00002B                     	ds	1
   431  00002C                     _uart2_tx_pos:
   432                           	opt stack 0
   433  00002C                     	ds	1
   434  00002D                     keypadRead@keyNew:
   435                           	opt stack 0
   436  00002D                     	ds	1
   437  00002E                     keypadRead@keyOld:
   438                           	opt stack 0
   439  00002E                     	ds	1
   440                           tblptru	equ	0xFF8
   441                           tblptrh	equ	0xFF7
   442                           tblptrl	equ	0xFF6
   443                           tablat	equ	0xFF5
   444                           postinc0	equ	0xFEE
   445                           wreg	equ	0xFE8
   446                           postdec1	equ	0xFE5
   447                           fsr1l	equ	0xFE1
   448                           
   449                           	psect	dataCOMRAM
   450  00004B                     __pdataCOMRAM:
   451                           	opt stack 0
   452  00004B                     _HMSec:
   453                           	opt stack 0
   454  00004B                     	ds	1
   455  00004C                     _OneSec:
   456                           	opt stack 0
   457  00004C                     	ds	1
   458  00004D                     _TmrSec:
   459                           	opt stack 0
   460  00004D                     	ds	1
   461  00004E                     _lcd_disp:
   462                           	opt stack 0
   463  00004E                     	ds	1
   464                           tblptru	equ	0xFF8
   465                           tblptrh	equ	0xFF7
   466                           tblptrl	equ	0xFF6
   467                           tablat	equ	0xFF5
   468                           postinc0	equ	0xFEE
   469                           wreg	equ	0xFE8
   470                           postdec1	equ	0xFE5
   471                           fsr1l	equ	0xFE1
   472                           
   473                           	psect	bssBANK0
   474  000060                     __pbssBANK0:
   475                           	opt stack 0
   476  000060                     _uart1_txbuf:
   477                           	opt stack 0
   478  000060                     	ds	33
   479  000081                     _uart2_txbuf:
   480                           	opt stack 0
   481  000081                     	ds	33
   482  0000A2                     _TimerArray:
   483                           	opt stack 0
   484  0000A2                     	ds	20
   485  0000B6                     _sysTick:
   486                           	opt stack 0
   487  0000B6                     	ds	4
   488  0000BA                     _INT0_InterruptHandler:
   489                           	opt stack 0
   490  0000BA                     	ds	2
   491  0000BC                     _INT1_InterruptHandler:
   492                           	opt stack 0
   493  0000BC                     	ds	2
   494  0000BE                     _INT2_InterruptHandler:
   495                           	opt stack 0
   496  0000BE                     	ds	2
   497  0000C0                     _Task2:
   498                           	opt stack 0
   499  0000C0                     	ds	1
   500  0000C1                     _Task3:
   501                           	opt stack 0
   502  0000C1                     	ds	1
   503  0000C2                     _Task4:
   504                           	opt stack 0
   505  0000C2                     	ds	1
   506  0000C3                     _Task5:
   507                           	opt stack 0
   508  0000C3                     	ds	1
   509  0000C4                     _Task6:
   510                           	opt stack 0
   511  0000C4                     	ds	1
   512  0000C5                     _Task7:
   513                           	opt stack 0
   514  0000C5                     	ds	1
   515  0000C6                     _Task8:
   516                           	opt stack 0
   517  0000C6                     	ds	1
   518  0000C7                     _i2c_error_flag:
   519                           	opt stack 0
   520  0000C7                     	ds	1
   521  0000C8                     _lcd_cols:
   522                           	opt stack 0
   523  0000C8                     	ds	1
   524  0000C9                     _lcd_rows:
   525                           	opt stack 0
   526  0000C9                     	ds	1
   527  0000CA                     _lcd_temp:
   528                           	opt stack 0
   529  0000CA                     	ds	1
   530  0000CB                     	ds	1
   531  0000CC                     	ds	1
   532  0000CD                     _buf:
   533                           	opt stack 0
   534  0000CD                     	ds	32
   535                           tblptru	equ	0xFF8
   536                           tblptrh	equ	0xFF7
   537                           tblptrl	equ	0xFF6
   538                           tablat	equ	0xFF5
   539                           postinc0	equ	0xFEE
   540                           wreg	equ	0xFE8
   541                           postdec1	equ	0xFE5
   542                           fsr1l	equ	0xFE1
   543                           
   544                           	psect	bssBANK1
   545  000100                     __pbssBANK1:
   546                           	opt stack 0
   547  000100                     _uart1_rxbuf:
   548                           	opt stack 0
   549  000100                     	ds	96
   550  000160                     _uart2_rxbuf:
   551                           	opt stack 0
   552  000160                     	ds	96
   553                           tblptru	equ	0xFF8
   554                           tblptrh	equ	0xFF7
   555                           tblptrl	equ	0xFF6
   556                           tablat	equ	0xFF5
   557                           postinc0	equ	0xFEE
   558                           wreg	equ	0xFE8
   559                           postdec1	equ	0xFE5
   560                           fsr1l	equ	0xFE1
   561                           
   562                           	psect	cstackBANK0
   563  0000ED                     __pcstackBANK0:
   564                           	opt stack 0
   565  0000ED                     ___lldiv@quotient:
   566                           	opt stack 0
   567                           
   568                           ; 4 bytes @ 0x0
   569  0000ED                     	ds	4
   570  0000F1                     ___lldiv@counter:
   571                           	opt stack 0
   572                           
   573                           ; 1 bytes @ 0x4
   574  0000F1                     	ds	1
   575  0000F2                     timerSet@value:
   576                           	opt stack 0
   577  0000F2                     uart_brg_set@speed:
   578                           	opt stack 0
   579                           
   580                           ; 4 bytes @ 0x5
   581  0000F2                     	ds	4
   582  0000F6                     ??_uart_brg_set:
   583  0000F6                     loop@i:
   584                           	opt stack 0
   585                           
   586                           ; 1 bytes @ 0x9
   587  0000F6                     	ds	1
   588  0000F7                     loop@i_3455:
   589                           	opt stack 0
   590                           
   591                           ; 1 bytes @ 0xA
   592  0000F7                     	ds	3
   593  0000FA                     Serial2_begin@speed:
   594                           	opt stack 0
   595                           
   596                           ; 4 bytes @ 0xD
   597  0000FA                     	ds	4
   598                           tblptru	equ	0xFF8
   599                           tblptrh	equ	0xFF7
   600                           tblptrl	equ	0xFF6
   601                           tablat	equ	0xFF5
   602                           postinc0	equ	0xFEE
   603                           wreg	equ	0xFE8
   604                           postdec1	equ	0xFE5
   605                           fsr1l	equ	0xFE1
   606                           
   607                           	psect	cstackCOMRAM
   608  00002F                     __pcstackCOMRAM:
   609                           	opt stack 0
   610  00002F                     ??_InterruptHandlerHigh:
   611  00002F                     
   612                           ; 1 bytes @ 0x0
   613  00002F                     	ds	14
   614  00003D                     InterruptHandlerHigh@dd:
   615                           	opt stack 0
   616                           
   617                           ; 2 bytes @ 0xE
   618  00003D                     	ds	2
   619  00003F                     InterruptHandlerHigh@i:
   620                           	opt stack 0
   621                           
   622                           ; 1 bytes @ 0x10
   623  00003F                     	ds	1
   624  000040                     ??_analogInput:
   625  000040                     ?_sprintf:
   626                           	opt stack 0
   627  000040                     ?___lldiv:
   628                           	opt stack 0
   629  000040                     init@i:
   630                           	opt stack 0
   631  000040                     timerUp@index:
   632                           	opt stack 0
   633  000040                     digitalRead@pin:
   634                           	opt stack 0
   635  000040                     Serial2_putc@p:
   636                           	opt stack 0
   637  000040                     Serial2_read@d:
   638                           	opt stack 0
   639  000040                     delay@ms:
   640                           	opt stack 0
   641  000040                     pwm_out@dutyValue:
   642                           	opt stack 0
   643  000040                     sprintf@sp:
   644                           	opt stack 0
   645  000040                     ___lldiv@dividend:
   646                           	opt stack 0
   647                           
   648                           ; 4 bytes @ 0x11
   649  000040                     	ds	1
   650  000041                     digitalRead@di:
   651                           	opt stack 0
   652  000041                     Serial2_putc@d:
   653                           	opt stack 0
   654                           
   655                           ; 1 bytes @ 0x12
   656  000041                     	ds	1
   657  000042                     analogInput@ANx:
   658                           	opt stack 0
   659  000042                     digitalWrite@value:
   660                           	opt stack 0
   661  000042                     pwm_out@ch:
   662                           	opt stack 0
   663  000042                     delay@i:
   664                           	opt stack 0
   665  000042                     Serial2_println@str:
   666                           	opt stack 0
   667  000042                     sprintf@f:
   668                           	opt stack 0
   669                           
   670                           ; 2 bytes @ 0x13
   671  000042                     	ds	1
   672  000043                     analogInput@d:
   673                           	opt stack 0
   674  000043                     digitalWrite@pin:
   675                           	opt stack 0
   676                           
   677                           ; 1 bytes @ 0x14
   678  000043                     	ds	1
   679  000044                     pinMode@mode:
   680                           	opt stack 0
   681  000044                     ___lldiv@divisor:
   682                           	opt stack 0
   683                           
   684                           ; 4 bytes @ 0x15
   685  000044                     	ds	1
   686  000045                     pinMode@pin:
   687                           	opt stack 0
   688                           
   689                           ; 1 bytes @ 0x16
   690  000045                     	ds	1
   691  000046                     sprintf@flag:
   692                           	opt stack 0
   693                           
   694                           ; 1 bytes @ 0x17
   695  000046                     	ds	1
   696  000047                     sprintf@ap:
   697                           	opt stack 0
   698                           
   699                           ; 2 bytes @ 0x18
   700  000047                     	ds	1
   701  000048                     timerSet@index:
   702                           	opt stack 0
   703  000048                     uart_brg_set@com:
   704                           	opt stack 0
   705                           
   706                           ; 1 bytes @ 0x19
   707  000048                     	ds	1
   708  000049                     uart_brg_set@brgl:
   709                           	opt stack 0
   710  000049                     sprintf@c:
   711                           	opt stack 0
   712                           
   713                           ; 1 bytes @ 0x1A
   714  000049                     	ds	1
   715  00004A                     uart_brg_set@brgh:
   716                           	opt stack 0
   717                           
   718                           ; 1 bytes @ 0x1B
   719  00004A                     	ds	1
   720  00004B                     tblptru	equ	0xFF8
   721                           tblptrh	equ	0xFF7
   722                           tblptrl	equ	0xFF6
   723                           tablat	equ	0xFF5
   724                           postinc0	equ	0xFEE
   725                           wreg	equ	0xFE8
   726                           postdec1	equ	0xFE5
   727                           fsr1l	equ	0xFE1
   728                           
   729                           ; 0 bytes @ 0x1C
   730 ;;
   731 ;;Main: autosize = 0, tempsize = 0, incstack = 0, save=0
   732 ;;
   733 ;; *************** function _main *****************
   734 ;; Defined at:
   735 ;;		line 447 in file "picuno.c"
   736 ;; Parameters:    Size  Location     Type
   737 ;;		None
   738 ;; Auto vars:     Size  Location     Type
   739 ;;		None
   740 ;; Return value:  Size  Location     Type
   741 ;;		None               void
   742 ;; Registers used:
   743 ;;		wreg, fsr0l, fsr0h, fsr2l, fsr2h, status,2, status,0, tblptrl, tblptrh, tblptru, prodl, prodh, cstack
   744 ;; Tracked objects:
   745 ;;		On entry : 0/0
   746 ;;		On exit  : 0/0
   747 ;;		Unchanged: 0/0
   748 ;; Data sizes:     COMRAM   BANK0   BANK1   BANK2   BANK3   BANK4   BANK5
   749 ;;      Params:         0       0       0       0       0       0       0
   750 ;;      Locals:         0       0       0       0       0       0       0
   751 ;;      Temps:          0       0       0       0       0       0       0
   752 ;;      Totals:         0       0       0       0       0       0       0
   753 ;;Total ram usage:        0 bytes
   754 ;; Hardware stack levels required when called:    8
   755 ;; This function calls:
   756 ;;		_init
   757 ;;		_loop
   758 ;;		_setup
   759 ;;		_sync
   760 ;;		_task
   761 ;; This function is called by:
   762 ;;		Startup code after reset
   763 ;; This function uses a non-reentrant model
   764 ;;
   765                           
   766                           	psect	text0
   767  001886                     __ptext0:
   768                           	opt stack 0
   769  001886                     _main:
   770                           	opt stack 23
   771                           
   772                           ;picuno.c: 449: init();
   773                           
   774                           ;incstack = 0
   775  001886  EC42  F00A         	call	_init	;wreg free
   776                           
   777                           ;picuno.c: 450: setup();
   778  00188A  EC9D  F009         	call	_setup	;wreg free
   779  00188E                     l459:
   780  00188E  0004               	clrwdt		;# 
   781                           
   782                           ;picuno.c: 454: sync();
   783  001890  EC4F  F00C         	call	_sync	;wreg free
   784                           
   785                           ;picuno.c: 455: loop();
   786  001894  ECB3  F008         	call	_loop	;wreg free
   787                           
   788                           ;picuno.c: 456: task();
   789  001898  EC65  F00C         	call	_task	;wreg free
   790  00189C  D7F8               	goto	l459
   791  00189E                     __end_of_main:
   792                           	opt stack 0
   793                           tblptru	equ	0xFF8
   794                           tblptrh	equ	0xFF7
   795                           tblptrl	equ	0xFF6
   796                           tablat	equ	0xFF5
   797                           postinc0	equ	0xFEE
   798                           wreg	equ	0xFE8
   799                           postdec1	equ	0xFE5
   800                           fsr1l	equ	0xFE1
   801                           
   802 ;; *************** function _task *****************
   803 ;; Defined at:
   804 ;;		line 419 in file "picuno.c"
   805 ;; Parameters:    Size  Location     Type
   806 ;;		None
   807 ;; Auto vars:     Size  Location     Type
   808 ;;		None
   809 ;; Return value:  Size  Location     Type
   810 ;;		None               void
   811 ;; Registers used:
   812 ;;		None
   813 ;; Tracked objects:
   814 ;;		On entry : 0/0
   815 ;;		On exit  : 0/0
   816 ;;		Unchanged: 0/0
   817 ;; Data sizes:     COMRAM   BANK0   BANK1   BANK2   BANK3   BANK4   BANK5
   818 ;;      Params:         0       0       0       0       0       0       0
   819 ;;      Locals:         0       0       0       0       0       0       0
   820 ;;      Temps:          0       0       0       0       0       0       0
   821 ;;      Totals:         0       0       0       0       0       0       0
   822 ;;Total ram usage:        0 bytes
   823 ;; Hardware stack levels used:    1
   824 ;; Hardware stack levels required when called:    3
   825 ;; This function calls:
   826 ;;		Nothing
   827 ;; This function is called by:
   828 ;;		_main
   829 ;; This function uses a non-reentrant model
   830 ;;
   831                           
   832                           	psect	text1
   833  0018CA                     __ptext1:
   834                           	opt stack 0
   835  0018CA                     _task:
   836                           	opt stack 27
   837                           
   838                           ;incstack = 0
   839  0018CA  0012               	return	
   840  0018CC                     __end_of_task:
   841                           	opt stack 0
   842                           tblptru	equ	0xFF8
   843                           tblptrh	equ	0xFF7
   844                           tblptrl	equ	0xFF6
   845                           tablat	equ	0xFF5
   846                           postinc0	equ	0xFEE
   847                           wreg	equ	0xFE8
   848                           postdec1	equ	0xFE5
   849                           fsr1l	equ	0xFE1
   850                           
   851 ;; *************** function _sync *****************
   852 ;; Defined at:
   853 ;;		line 280 in file "picuno.c"
   854 ;; Parameters:    Size  Location     Type
   855 ;;		None
   856 ;; Auto vars:     Size  Location     Type
   857 ;;		None
   858 ;; Return value:  Size  Location     Type
   859 ;;		None               void
   860 ;; Registers used:
   861 ;;		None
   862 ;; Tracked objects:
   863 ;;		On entry : 0/0
   864 ;;		On exit  : 0/0
   865 ;;		Unchanged: 0/0
   866 ;; Data sizes:     COMRAM   BANK0   BANK1   BANK2   BANK3   BANK4   BANK5
   867 ;;      Params:         0       0       0       0       0       0       0
   868 ;;      Locals:         0       0       0       0       0       0       0
   869 ;;      Temps:          0       0       0       0       0       0       0
   870 ;;      Totals:         0       0       0       0       0       0       0
   871 ;;Total ram usage:        0 bytes
   872 ;; Hardware stack levels used:    1
   873 ;; Hardware stack levels required when called:    3
   874 ;; This function calls:
   875 ;;		Nothing
   876 ;; This function is called by:
   877 ;;		_main
   878 ;; This function uses a non-reentrant model
   879 ;;
   880                           
   881                           	psect	text2
   882  00189E                     __ptext2:
   883                           	opt stack 0
   884  00189E                     _sync:
   885                           	opt stack 27
   886                           
   887                           ;picuno.c: 283: Flags.Bit.bit7 = 0;
   888                           
   889                           ;incstack = 0
   890  00189E  9E01               	bcf	_Flags,7,c
   891                           
   892                           ;picuno.c: 284: if(Flags.Bit.bit0)
   893  0018A0  A001               	btfss	_Flags,0,c
   894  0018A2  0012               	return	
   895                           
   896                           ;picuno.c: 285: {
   897                           ;picuno.c: 286: Flags.Bit.bit0 = 0;
   898  0018A4  9001               	bcf	_Flags,0,c
   899                           
   900                           ;picuno.c: 287: Flags.Bit.bit7 = 1;
   901  0018A6  8E01               	bsf	_Flags,7,c
   902  0018A8  0012               	return	
   903  0018AA                     __end_of_sync:
   904                           	opt stack 0
   905                           tblptru	equ	0xFF8
   906                           tblptrh	equ	0xFF7
   907                           tblptrl	equ	0xFF6
   908                           tablat	equ	0xFF5
   909                           postinc0	equ	0xFEE
   910                           wreg	equ	0xFE8
   911                           postdec1	equ	0xFE5
   912                           fsr1l	equ	0xFE1
   913                           
   914 ;; *************** function _setup *****************
   915 ;; Defined at:
   916 ;;		line 33 in file "lab4_template.c"
   917 ;; Parameters:    Size  Location     Type
   918 ;;		None
   919 ;; Auto vars:     Size  Location     Type
   920 ;;		None
   921 ;; Return value:  Size  Location     Type
   922 ;;		None               void
   923 ;; Registers used:
   924 ;;		wreg, fsr0l, fsr0h, fsr2l, fsr2h, status,2, status,0, tblptrl, tblptrh, tblptru, prodl, prodh, cstack
   925 ;; Tracked objects:
   926 ;;		On entry : 0/0
   927 ;;		On exit  : 0/0
   928 ;;		Unchanged: 0/0
   929 ;; Data sizes:     COMRAM   BANK0   BANK1   BANK2   BANK3   BANK4   BANK5
   930 ;;      Params:         0       0       0       0       0       0       0
   931 ;;      Locals:         0       0       0       0       0       0       0
   932 ;;      Temps:          0       0       0       0       0       0       0
   933 ;;      Totals:         0       0       0       0       0       0       0
   934 ;;Total ram usage:        0 bytes
   935 ;; Hardware stack levels used:    1
   936 ;; Hardware stack levels required when called:    6
   937 ;; This function calls:
   938 ;;		_Serial2_begin
   939 ;;		_Serial2_println
   940 ;;		_digitalRead
   941 ;;		_digitalWrite
   942 ;;		_disable_motor
   943 ;;		_pinMode
   944 ;;		_pwm_on
   945 ;;		_pwm_out
   946 ;; This function is called by:
   947 ;;		_main
   948 ;; This function uses a non-reentrant model
   949 ;;
   950                           
   951                           	psect	text3
   952  00133A                     __ptext3:
   953                           	opt stack 0
   954  00133A                     _setup:
   955                           	opt stack 24
   956                           
   957                           ;lab4_template.c: 34: Serial2_begin(9600);
   958                           
   959                           ;incstack = 0
   960  00133A  0E80               	movlw	128
   961  00133C  0100               	movlb	0	; () banked
   962  00133E  6FFA               	movwf	Serial2_begin@speed& (0+255),b
   963  001340  0E25               	movlw	37
   964  001342  0100               	movlb	0	; () banked
   965  001344  6FFB               	movwf	(Serial2_begin@speed+1)& (0+255),b
   966  001346  0E00               	movlw	0
   967  001348  0100               	movlb	0	; () banked
   968  00134A  6FFC               	movwf	(Serial2_begin@speed+2)& (0+255),b
   969  00134C  0E00               	movlw	0
   970  00134E  0100               	movlb	0	; () banked
   971  001350  6FFD               	movwf	(Serial2_begin@speed+3)& (0+255),b
   972  001352  ECEA  F00B         	call	_Serial2_begin	;wreg free
   973                           
   974                           ;lab4_template.c: 35: pinMode(17,0x01);
   975  001356  0E01               	movlw	1
   976  001358  6E44               	movwf	pinMode@mode,c
   977  00135A  0E11               	movlw	17
   978  00135C  EC13  F003         	call	_pinMode
   979                           
   980                           ;lab4_template.c: 36: pinMode(14, 0x00);
   981  001360  0E00               	movlw	0
   982  001362  6E44               	movwf	pinMode@mode,c
   983  001364  0E0E               	movlw	14
   984  001366  EC13  F003         	call	_pinMode
   985                           
   986                           ;lab4_template.c: 37: pinMode(15, 0x00);
   987  00136A  0E00               	movlw	0
   988  00136C  6E44               	movwf	pinMode@mode,c
   989  00136E  0E0F               	movlw	15
   990  001370  EC13  F003         	call	_pinMode
   991                           
   992                           ;lab4_template.c: 38: pinMode (10, 0x00);
   993  001374  0E00               	movlw	0
   994  001376  6E44               	movwf	pinMode@mode,c
   995  001378  0E0A               	movlw	10
   996  00137A  EC13  F003         	call	_pinMode
   997                           
   998                           ;lab4_template.c: 39: digitalWrite(14, 0x00);
   999  00137E  0E00               	movlw	0
  1000  001380  6E42               	movwf	digitalWrite@value,c
  1001  001382  0E0E               	movlw	14
  1002  001384  ECBA  F005         	call	_digitalWrite
  1003                           
  1004                           ;lab4_template.c: 40: digitalWrite(15, 0x00);
  1005  001388  0E00               	movlw	0
  1006  00138A  6E42               	movwf	digitalWrite@value,c
  1007  00138C  0E0F               	movlw	15
  1008  00138E  ECBA  F005         	call	_digitalWrite
  1009                           
  1010                           ;lab4_template.c: 41: digitalWrite(10, 0x00);
  1011  001392  0E00               	movlw	0
  1012  001394  6E42               	movwf	digitalWrite@value,c
  1013  001396  0E0A               	movlw	10
  1014  001398  ECBA  F005         	call	_digitalWrite
  1015                           
  1016                           ;lab4_template.c: 42: disable_motor();
  1017  00139C  EC23  F00C         	call	_disable_motor	;wreg free
  1018                           
  1019                           ;lab4_template.c: 43: pwm_on();
  1020  0013A0  EC43  F009         	call	_pwm_on	;wreg free
  1021                           
  1022                           ;lab4_template.c: 44: pwm_out(1,0);
  1023  0013A4  0E00               	movlw	0
  1024  0013A6  6E41               	movwf	pwm_out@dutyValue+1,c
  1025  0013A8  0E00               	movlw	0
  1026  0013AA  6E40               	movwf	pwm_out@dutyValue,c
  1027  0013AC  0E01               	movlw	1
  1028  0013AE  ECA0  F00B         	call	_pwm_out
  1029                           
  1030                           ;lab4_template.c: 45: pwm_out(2,0);
  1031  0013B2  0E00               	movlw	0
  1032  0013B4  6E41               	movwf	pwm_out@dutyValue+1,c
  1033  0013B6  0E00               	movlw	0
  1034  0013B8  6E40               	movwf	pwm_out@dutyValue,c
  1035  0013BA  0E02               	movlw	2
  1036  0013BC  ECA0  F00B         	call	_pwm_out
  1037                           
  1038                           ;lab4_template.c: 46: pwm_out(3,0);
  1039  0013C0  0E00               	movlw	0
  1040  0013C2  6E41               	movwf	pwm_out@dutyValue+1,c
  1041  0013C4  0E00               	movlw	0
  1042  0013C6  6E40               	movwf	pwm_out@dutyValue,c
  1043  0013C8  0E03               	movlw	3
  1044  0013CA  ECA0  F00B         	call	_pwm_out
  1045                           
  1046                           ;lab4_template.c: 47: Serial2_println("PRESS PB2 to START");
  1047  0013CE  0E06               	movlw	high STR_1
  1048  0013D0  6E43               	movwf	Serial2_println@str+1,c
  1049  0013D2  0E01               	movlw	low STR_1
  1050  0013D4  6E42               	movwf	Serial2_println@str,c
  1051  0013D6  EC03  F00B         	call	_Serial2_println	;wreg free
  1052  0013DA                     l6524:
  1053  0013DA  0E11               	movlw	17
  1054  0013DC  ECF9  F006         	call	_digitalRead
  1055  0013E0  0900               	iorlw	0
  1056  0013E2  B4D8               	btfsc	status,2,c
  1057  0013E4  0012               	return	
  1058  0013E6  D7F9               	goto	l6524
  1059  0013E8                     __end_of_setup:
  1060                           	opt stack 0
  1061                           tblptru	equ	0xFF8
  1062                           tblptrh	equ	0xFF7
  1063                           tblptrl	equ	0xFF6
  1064                           tablat	equ	0xFF5
  1065                           postinc0	equ	0xFEE
  1066                           wreg	equ	0xFE8
  1067                           postdec1	equ	0xFE5
  1068                           fsr1l	equ	0xFE1
  1069                           status	equ	0xFD8
  1070                           
  1071 ;; *************** function _pwm_on *****************
  1072 ;; Defined at:
  1073 ;;		line 2886 in file "picuno.c"
  1074 ;; Parameters:    Size  Location     Type
  1075 ;;		None
  1076 ;; Auto vars:     Size  Location     Type
  1077 ;;		None
  1078 ;; Return value:  Size  Location     Type
  1079 ;;		None               void
  1080 ;; Registers used:
  1081 ;;		wreg, status,2, status,0, cstack
  1082 ;; Tracked objects:
  1083 ;;		On entry : 0/0
  1084 ;;		On exit  : 0/0
  1085 ;;		Unchanged: 0/0
  1086 ;; Data sizes:     COMRAM   BANK0   BANK1   BANK2   BANK3   BANK4   BANK5
  1087 ;;      Params:         0       0       0       0       0       0       0
  1088 ;;      Locals:         0       0       0       0       0       0       0
  1089 ;;      Temps:          0       0       0       0       0       0       0
  1090 ;;      Totals:         0       0       0       0       0       0       0
  1091 ;;Total ram usage:        0 bytes
  1092 ;; Hardware stack levels used:    1
  1093 ;; Hardware stack levels required when called:    5
  1094 ;; This function calls:
  1095 ;;		_pinMode
  1096 ;; This function is called by:
  1097 ;;		_setup
  1098 ;; This function uses a non-reentrant model
  1099 ;;
  1100                           
  1101                           	psect	text4
  1102  001286                     __ptext4:
  1103                           	opt stack 0
  1104  001286                     _pwm_on:
  1105                           	opt stack 24
  1106                           
  1107                           ;picuno.c: 2891: PR2 = 0xFF;
  1108                           
  1109                           ;incstack = 0
  1110  001286  68BB               	setf	4027,c	;volatile
  1111                           
  1112                           ;picuno.c: 2894: TMR2 = 0x00;
  1113  001288  0E00               	movlw	0
  1114  00128A  6EBC               	movwf	4028,c	;volatile
  1115                           
  1116                           ;picuno.c: 2897: PIR1bits.TMR2IF = 0;
  1117  00128C  929E               	bcf	3998,1,c	;volatile
  1118                           
  1119                           ;picuno.c: 2900: T2CON = 0x1E;
  1120  00128E  0E1E               	movlw	30
  1121  001290  6EBA               	movwf	4026,c	;volatile
  1122                           
  1123                           ;picuno.c: 2905: CCP1CON = 0x1C;
  1124  001292  0E1C               	movlw	28
  1125  001294  6EBD               	movwf	4029,c	;volatile
  1126                           
  1127                           ;picuno.c: 2908: ECCP1AS = 0x00;
  1128  001296  0E00               	movlw	0
  1129  001298  6EB6               	movwf	4022,c	;volatile
  1130                           
  1131                           ;picuno.c: 2911: PWM1CON = 0x80;
  1132  00129A  0E80               	movlw	128
  1133  00129C  6EB7               	movwf	4023,c	;volatile
  1134                           
  1135                           ;picuno.c: 2914: PSTR1CON = 0x01;
  1136  00129E  0E01               	movlw	1
  1137  0012A0  6EB9               	movwf	4025,c	;volatile
  1138                           
  1139                           ;picuno.c: 2917: CCPR1H = 0x00;
  1140  0012A2  0E00               	movlw	0
  1141  0012A4  6EBF               	movwf	4031,c	;volatile
  1142                           
  1143                           ;picuno.c: 2920: CCPR1L = 0x00;
  1144  0012A6  0E00               	movlw	0
  1145  0012A8  6EBE               	movwf	4030,c	;volatile
  1146                           
  1147                           ;picuno.c: 2923: CCPTMRS0bits.C1TSEL = 0x0;
  1148  0012AA  0EFC               	movlw	-4
  1149  0012AC  010F               	movlb	15	; () banked
  1150  0012AE  1749               	andwf	73,f,b	;volatile
  1151                           
  1152                           ;picuno.c: 2927: CCP2CON = 0x3C;
  1153  0012B0  0E3C               	movlw	60
  1154  0012B2  6E66               	movwf	3942,c	;volatile
  1155                           
  1156                           ;picuno.c: 2930: ECCP2AS = 0x00;
  1157  0012B4  0E00               	movlw	0
  1158  0012B6  6E64               	movwf	3940,c	;volatile
  1159                           
  1160                           ;picuno.c: 2933: PWM2CON = 0x80;
  1161  0012B8  0E80               	movlw	128
  1162  0012BA  6E65               	movwf	3941,c	;volatile
  1163                           
  1164                           ;picuno.c: 2936: PSTR2CON = 0x01;
  1165  0012BC  0E01               	movlw	1
  1166  0012BE  6E63               	movwf	3939,c	;volatile
  1167                           
  1168                           ;picuno.c: 2939: CCPR2L = 0x00;
  1169  0012C0  0E00               	movlw	0
  1170  0012C2  6E67               	movwf	3943,c	;volatile
  1171                           
  1172                           ;picuno.c: 2942: CCPR2H = 0x00;
  1173  0012C4  0E00               	movlw	0
  1174  0012C6  6E68               	movwf	3944,c	;volatile
  1175                           
  1176                           ;picuno.c: 2945: CCPTMRS0bits.C2TSEL = 0x0;
  1177  0012C8  0EE7               	movlw	-25
  1178  0012CA  010F               	movlb	15	; () banked
  1179  0012CC  1749               	andwf	73,f,b	;volatile
  1180                           
  1181                           ;picuno.c: 2951: CCP3CON = 0x0C;
  1182  0012CE  0E0C               	movlw	12
  1183  0012D0  010F               	movlb	15	; () banked
  1184  0012D2  6F5D               	movwf	93,b	;volatile
  1185                           
  1186                           ;picuno.c: 2954: ECCP3AS = 0x00;
  1187  0012D4  0E00               	movlw	0
  1188  0012D6  010F               	movlb	15	; () banked
  1189  0012D8  6F5B               	movwf	91,b	;volatile
  1190                           
  1191                           ;picuno.c: 2957: PWM3CON = 0x80;
  1192  0012DA  0E80               	movlw	128
  1193  0012DC  010F               	movlb	15	; () banked
  1194  0012DE  6F5C               	movwf	92,b	;volatile
  1195                           
  1196                           ;picuno.c: 2960: PSTR3CON = 0x01;
  1197  0012E0  0E01               	movlw	1
  1198  0012E2  010F               	movlb	15	; () banked
  1199  0012E4  6F5A               	movwf	90,b	;volatile
  1200                           
  1201                           ;picuno.c: 2963: CCPR3H = 0x00;
  1202  0012E6  0E00               	movlw	0
  1203  0012E8  010F               	movlb	15	; () banked
  1204  0012EA  6F5F               	movwf	95,b	;volatile
  1205                           
  1206                           ;picuno.c: 2966: CCPR3L = 0x00;
  1207  0012EC  0E00               	movlw	0
  1208  0012EE  010F               	movlb	15	; () banked
  1209  0012F0  6F5E               	movwf	94,b	;volatile
  1210                           
  1211                           ;picuno.c: 2969: CCPTMRS0bits.C3TSEL = 0x0;
  1212  0012F2  0E3F               	movlw	-193
  1213  0012F4  010F               	movlb	15	; () banked
  1214  0012F6  1749               	andwf	73,f,b	;volatile
  1215                           
  1216                           ;picuno.c: 2974: CCP4CON = 0x1C;
  1217  0012F8  0E1C               	movlw	28
  1218  0012FA  010F               	movlb	15	; () banked
  1219  0012FC  6F57               	movwf	87,b	;volatile
  1220                           
  1221                           ;picuno.c: 2977: CCPR4L = 0x00;
  1222  0012FE  0E00               	movlw	0
  1223  001300  010F               	movlb	15	; () banked
  1224  001302  6F58               	movwf	88,b	;volatile
  1225                           
  1226                           ;picuno.c: 2980: CCPR4H = 0x00;
  1227  001304  0E00               	movlw	0
  1228  001306  010F               	movlb	15	; () banked
  1229  001308  6F59               	movwf	89,b	;volatile
  1230                           
  1231                           ;picuno.c: 2983: CCPTMRS1bits.C4TSEL = 0x0;
  1232  00130A  0EFC               	movlw	-4
  1233  00130C  010F               	movlb	15	; () banked
  1234  00130E  1748               	andwf	72,f,b	;volatile
  1235                           
  1236                           ; BSR set to: 15
  1237                           ;picuno.c: 2985: pinMode(18,0x00);
  1238  001310  0E00               	movlw	0
  1239  001312  6E44               	movwf	pinMode@mode,c
  1240  001314  0E12               	movlw	18
  1241  001316  EC13  F003         	call	_pinMode
  1242                           
  1243                           ;picuno.c: 2986: pinMode(11,0x00);
  1244  00131A  0E00               	movlw	0
  1245  00131C  6E44               	movwf	pinMode@mode,c
  1246  00131E  0E0B               	movlw	11
  1247  001320  EC13  F003         	call	_pinMode
  1248                           
  1249                           ;picuno.c: 2987: pinMode(13,0x00);
  1250  001324  0E00               	movlw	0
  1251  001326  6E44               	movwf	pinMode@mode,c
  1252  001328  0E0D               	movlw	13
  1253  00132A  EC13  F003         	call	_pinMode
  1254                           
  1255                           ;picuno.c: 2988: pinMode(25,0x00);
  1256  00132E  0E00               	movlw	0
  1257  001330  6E44               	movwf	pinMode@mode,c
  1258  001332  0E19               	movlw	25
  1259  001334  EC13  F003         	call	_pinMode
  1260  001338  0012               	return	
  1261  00133A                     __end_of_pwm_on:
  1262                           	opt stack 0
  1263                           tblptru	equ	0xFF8
  1264                           tblptrh	equ	0xFF7
  1265                           tblptrl	equ	0xFF6
  1266                           tablat	equ	0xFF5
  1267                           postinc0	equ	0xFEE
  1268                           wreg	equ	0xFE8
  1269                           postdec1	equ	0xFE5
  1270                           fsr1l	equ	0xFE1
  1271                           status	equ	0xFD8
  1272                           
  1273 ;; *************** function _Serial2_begin *****************
  1274 ;; Defined at:
  1275 ;;		line 2256 in file "picuno.c"
  1276 ;; Parameters:    Size  Location     Type
  1277 ;;  speed           4   13[BANK0 ] unsigned long 
  1278 ;; Auto vars:     Size  Location     Type
  1279 ;;		None
  1280 ;; Return value:  Size  Location     Type
  1281 ;;		None               void
  1282 ;; Registers used:
  1283 ;;		wreg, status,2, status,0, cstack
  1284 ;; Tracked objects:
  1285 ;;		On entry : 0/0
  1286 ;;		On exit  : 0/0
  1287 ;;		Unchanged: 0/0
  1288 ;; Data sizes:     COMRAM   BANK0   BANK1   BANK2   BANK3   BANK4   BANK5
  1289 ;;      Params:         0       4       0       0       0       0       0
  1290 ;;      Locals:         0       0       0       0       0       0       0
  1291 ;;      Temps:          0       0       0       0       0       0       0
  1292 ;;      Totals:         0       4       0       0       0       0       0
  1293 ;;Total ram usage:        4 bytes
  1294 ;; Hardware stack levels used:    1
  1295 ;; Hardware stack levels required when called:    5
  1296 ;; This function calls:
  1297 ;;		_uart_brg_set
  1298 ;; This function is called by:
  1299 ;;		_setup
  1300 ;; This function uses a non-reentrant model
  1301 ;;
  1302                           
  1303                           	psect	text5
  1304  0017D4                     __ptext5:
  1305                           	opt stack 0
  1306  0017D4                     _Serial2_begin:
  1307                           	opt stack 24
  1308                           
  1309                           ;picuno.c: 2258: uart_brg_set(2,speed);
  1310                           
  1311                           ;incstack = 0
  1312  0017D4  C0FA  F0F2         	movff	Serial2_begin@speed,uart_brg_set@speed
  1313  0017D8  C0FB  F0F3         	movff	Serial2_begin@speed+1,uart_brg_set@speed+1
  1314  0017DC  C0FC  F0F4         	movff	Serial2_begin@speed+2,uart_brg_set@speed+2
  1315  0017E0  C0FD  F0F5         	movff	Serial2_begin@speed+3,uart_brg_set@speed+3
  1316  0017E4  0E02               	movlw	2
  1317  0017E6  EC18  F008         	call	_uart_brg_set
  1318                           
  1319                           ;picuno.c: 2259: BAUDCON2bits.BRG16 = 1;
  1320  0017EA  8670               	bsf	3952,3,c	;volatile
  1321                           
  1322                           ;picuno.c: 2260: TXSTA2=0x24;
  1323  0017EC  0E24               	movlw	36
  1324  0017EE  6E72               	movwf	3954,c	;volatile
  1325                           
  1326                           ;picuno.c: 2261: RCSTA2=0x90;
  1327  0017F0  0E90               	movlw	144
  1328  0017F2  6E71               	movwf	3953,c	;volatile
  1329                           
  1330                           ;picuno.c: 2262: RC2IE = 1;
  1331  0017F4  8AA3               	bsf	4003,5,c	;volatile
  1332                           
  1333                           ;picuno.c: 2263: PIE3bits.TX2IE = 0;
  1334  0017F6  98A3               	bcf	4003,4,c	;volatile
  1335                           
  1336                           ;picuno.c: 2264: TX2IP = 1;
  1337  0017F8  88A5               	bsf	4005,4,c	;volatile
  1338                           
  1339                           ;picuno.c: 2265: RC2IP = 1;
  1340  0017FA  8AA5               	bsf	4005,5,c	;volatile
  1341  0017FC  0012               	return	
  1342  0017FE                     __end_of_Serial2_begin:
  1343                           	opt stack 0
  1344                           tblptru	equ	0xFF8
  1345                           tblptrh	equ	0xFF7
  1346                           tblptrl	equ	0xFF6
  1347                           tablat	equ	0xFF5
  1348                           postinc0	equ	0xFEE
  1349                           wreg	equ	0xFE8
  1350                           postdec1	equ	0xFE5
  1351                           fsr1l	equ	0xFE1
  1352                           status	equ	0xFD8
  1353                           
  1354 ;; *************** function _uart_brg_set *****************
  1355 ;; Defined at:
  1356 ;;		line 2044 in file "picuno.c"
  1357 ;; Parameters:    Size  Location     Type
  1358 ;;  com             1    wreg     unsigned char 
  1359 ;;  speed           4    5[BANK0 ] unsigned long 
  1360 ;; Auto vars:     Size  Location     Type
  1361 ;;  com             1   25[COMRAM] unsigned char 
  1362 ;;  brgh            1   27[COMRAM] unsigned char 
  1363 ;;  brgl            1   26[COMRAM] unsigned char 
  1364 ;; Return value:  Size  Location     Type
  1365 ;;		None               void
  1366 ;; Registers used:
  1367 ;;		wreg, status,2, status,0, cstack
  1368 ;; Tracked objects:
  1369 ;;		On entry : 0/0
  1370 ;;		On exit  : 0/0
  1371 ;;		Unchanged: 0/0
  1372 ;; Data sizes:     COMRAM   BANK0   BANK1   BANK2   BANK3   BANK4   BANK5
  1373 ;;      Params:         0       4       0       0       0       0       0
  1374 ;;      Locals:         3       0       0       0       0       0       0
  1375 ;;      Temps:          0       4       0       0       0       0       0
  1376 ;;      Totals:         3       8       0       0       0       0       0
  1377 ;;Total ram usage:       11 bytes
  1378 ;; Hardware stack levels used:    1
  1379 ;; Hardware stack levels required when called:    4
  1380 ;; This function calls:
  1381 ;;		___lldiv
  1382 ;; This function is called by:
  1383 ;;		_Serial2_begin
  1384 ;;		_Serial_begin
  1385 ;; This function uses a non-reentrant model
  1386 ;;
  1387                           
  1388                           	psect	text6
  1389  001030                     __ptext6:
  1390                           	opt stack 0
  1391  001030                     _uart_brg_set:
  1392                           	opt stack 24
  1393                           
  1394                           ;incstack = 0
  1395                           ;uart_brg_set@com stored from wreg
  1396  001030  6E48               	movwf	uart_brg_set@com,c
  1397                           
  1398                           ;picuno.c: 2046: byte brgl,brgh;
  1399                           ;picuno.c: 2048: speed = speed / 10;
  1400  001032  C0F2  F040         	movff	uart_brg_set@speed,___lldiv@dividend
  1401  001036  C0F3  F041         	movff	uart_brg_set@speed+1,___lldiv@dividend+1
  1402  00103A  C0F4  F042         	movff	uart_brg_set@speed+2,___lldiv@dividend+2
  1403  00103E  C0F5  F043         	movff	uart_brg_set@speed+3,___lldiv@dividend+3
  1404  001042  0E0A               	movlw	10
  1405  001044  6E44               	movwf	___lldiv@divisor,c
  1406  001046  0E00               	movlw	0
  1407  001048  6E45               	movwf	___lldiv@divisor+1,c
  1408  00104A  0E00               	movlw	0
  1409  00104C  6E46               	movwf	___lldiv@divisor+2,c
  1410  00104E  0E00               	movlw	0
  1411  001050  6E47               	movwf	___lldiv@divisor+3,c
  1412  001052  ECF4  F009         	call	___lldiv	;wreg free
  1413  001056  C040  F0F2         	movff	?___lldiv,uart_brg_set@speed
  1414  00105A  C041  F0F3         	movff	?___lldiv+1,uart_brg_set@speed+1
  1415  00105E  C042  F0F4         	movff	?___lldiv+2,uart_brg_set@speed+2
  1416  001062  C043  F0F5         	movff	?___lldiv+3,uart_brg_set@speed+3
  1417                           
  1418                           ;picuno.c: 2049: speed = 64000000UL / speed;
  1419  001066  0E00               	movlw	0
  1420  001068  6E40               	movwf	___lldiv@dividend,c
  1421  00106A  0E90               	movlw	144
  1422  00106C  6E41               	movwf	___lldiv@dividend+1,c
  1423  00106E  0ED0               	movlw	208
  1424  001070  6E42               	movwf	___lldiv@dividend+2,c
  1425  001072  0E03               	movlw	3
  1426  001074  6E43               	movwf	___lldiv@dividend+3,c
  1427  001076  C0F2  F044         	movff	uart_brg_set@speed,___lldiv@divisor
  1428  00107A  C0F3  F045         	movff	uart_brg_set@speed+1,___lldiv@divisor+1
  1429  00107E  C0F4  F046         	movff	uart_brg_set@speed+2,___lldiv@divisor+2
  1430  001082  C0F5  F047         	movff	uart_brg_set@speed+3,___lldiv@divisor+3
  1431  001086  ECF4  F009         	call	___lldiv	;wreg free
  1432  00108A  C040  F0F2         	movff	?___lldiv,uart_brg_set@speed
  1433  00108E  C041  F0F3         	movff	?___lldiv+1,uart_brg_set@speed+1
  1434  001092  C042  F0F4         	movff	?___lldiv+2,uart_brg_set@speed+2
  1435  001096  C043  F0F5         	movff	?___lldiv+3,uart_brg_set@speed+3
  1436                           
  1437                           ;picuno.c: 2050: speed = speed / 4;
  1438  00109A  0100               	movlb	0	; () banked
  1439  00109C  C0F2  F0F6         	movff	uart_brg_set@speed,??_uart_brg_set
  1440  0010A0  0100               	movlb	0	; () banked
  1441  0010A2  C0F3  F0F7         	movff	uart_brg_set@speed+1,??_uart_brg_set+1
  1442  0010A6  0100               	movlb	0	; () banked
  1443  0010A8  C0F4  F0F8         	movff	uart_brg_set@speed+2,??_uart_brg_set+2
  1444  0010AC  0100               	movlb	0	; () banked
  1445  0010AE  C0F5  F0F9         	movff	uart_brg_set@speed+3,??_uart_brg_set+3
  1446  0010B2  0E03               	movlw	3
  1447  0010B4  D006               	goto	u7890
  1448  0010B6                     u7895:
  1449  0010B6  0100               	movlb	0	; () banked
  1450  0010B8  90D8               	bcf	status,0,c
  1451  0010BA  33F9               	rrcf	(??_uart_brg_set+3)& (0+255),f,b
  1452  0010BC  33F8               	rrcf	(??_uart_brg_set+2)& (0+255),f,b
  1453  0010BE  33F7               	rrcf	(??_uart_brg_set+1)& (0+255),f,b
  1454  0010C0  33F6               	rrcf	??_uart_brg_set& (0+255),f,b
  1455  0010C2                     u7890:
  1456  0010C2  2EE8               	decfsz	wreg,f,c
  1457  0010C4  D7F8               	goto	u7895
  1458  0010C6  C0F6  F0F2         	movff	??_uart_brg_set,uart_brg_set@speed
  1459  0010CA  C0F7  F0F3         	movff	??_uart_brg_set+1,uart_brg_set@speed+1
  1460  0010CE  C0F8  F0F4         	movff	??_uart_brg_set+2,uart_brg_set@speed+2
  1461  0010D2  C0F9  F0F5         	movff	??_uart_brg_set+3,uart_brg_set@speed+3
  1462                           
  1463                           ; BSR set to: 0
  1464                           ;picuno.c: 2051: speed = speed + 5;
  1465  0010D6  0E05               	movlw	5
  1466  0010D8  0100               	movlb	0	; () banked
  1467  0010DA  25F2               	addwf	uart_brg_set@speed& (0+255),w,b
  1468  0010DC  0100               	movlb	0	; () banked
  1469  0010DE  6FF2               	movwf	uart_brg_set@speed& (0+255),b
  1470  0010E0  0E00               	movlw	0
  1471  0010E2  0100               	movlb	0	; () banked
  1472  0010E4  21F3               	addwfc	(uart_brg_set@speed+1)& (0+255),w,b
  1473  0010E6  0100               	movlb	0	; () banked
  1474  0010E8  6FF3               	movwf	(uart_brg_set@speed+1)& (0+255),b
  1475  0010EA  0E00               	movlw	0
  1476  0010EC  0100               	movlb	0	; () banked
  1477  0010EE  21F4               	addwfc	(uart_brg_set@speed+2)& (0+255),w,b
  1478  0010F0  0100               	movlb	0	; () banked
  1479  0010F2  6FF4               	movwf	(uart_brg_set@speed+2)& (0+255),b
  1480  0010F4  0E00               	movlw	0
  1481  0010F6  0100               	movlb	0	; () banked
  1482  0010F8  21F5               	addwfc	(uart_brg_set@speed+3)& (0+255),w,b
  1483  0010FA  0100               	movlb	0	; () banked
  1484  0010FC  6FF5               	movwf	(uart_brg_set@speed+3)& (0+255),b
  1485                           
  1486                           ;picuno.c: 2052: speed = speed / 10;
  1487  0010FE  C0F2  F040         	movff	uart_brg_set@speed,___lldiv@dividend
  1488  001102  C0F3  F041         	movff	uart_brg_set@speed+1,___lldiv@dividend+1
  1489  001106  C0F4  F042         	movff	uart_brg_set@speed+2,___lldiv@dividend+2
  1490  00110A  C0F5  F043         	movff	uart_brg_set@speed+3,___lldiv@dividend+3
  1491  00110E  0E0A               	movlw	10
  1492  001110  6E44               	movwf	___lldiv@divisor,c
  1493  001112  0E00               	movlw	0
  1494  001114  6E45               	movwf	___lldiv@divisor+1,c
  1495  001116  0E00               	movlw	0
  1496  001118  6E46               	movwf	___lldiv@divisor+2,c
  1497  00111A  0E00               	movlw	0
  1498  00111C  6E47               	movwf	___lldiv@divisor+3,c
  1499  00111E  ECF4  F009         	call	___lldiv	;wreg free
  1500  001122  C040  F0F2         	movff	?___lldiv,uart_brg_set@speed
  1501  001126  C041  F0F3         	movff	?___lldiv+1,uart_brg_set@speed+1
  1502  00112A  C042  F0F4         	movff	?___lldiv+2,uart_brg_set@speed+2
  1503  00112E  C043  F0F5         	movff	?___lldiv+3,uart_brg_set@speed+3
  1504                           
  1505                           ;picuno.c: 2053: speed--;
  1506  001132  0100               	movlb	0	; () banked
  1507  001134  07F2               	decf	uart_brg_set@speed& (0+255),f,b
  1508  001136  0E00               	movlw	0
  1509  001138  0100               	movlb	0	; () banked
  1510  00113A  5BF3               	subwfb	(uart_brg_set@speed+1)& (0+255),f,b
  1511  00113C  0100               	movlb	0	; () banked
  1512  00113E  5BF4               	subwfb	(uart_brg_set@speed+2)& (0+255),f,b
  1513  001140  0100               	movlb	0	; () banked
  1514  001142  5BF5               	subwfb	(uart_brg_set@speed+3)& (0+255),f,b
  1515                           
  1516                           ; BSR set to: 0
  1517                           ;picuno.c: 2054: brgh = (unsigned char)(speed>>8);
  1518  001144  C0F3  F04A         	movff	uart_brg_set@speed+1,uart_brg_set@brgh
  1519                           
  1520                           ; BSR set to: 0
  1521                           ;picuno.c: 2055: brgl = (unsigned char)(speed);
  1522  001148  C0F2  F049         	movff	uart_brg_set@speed,uart_brg_set@brgl
  1523                           
  1524                           ; BSR set to: 0
  1525                           ;picuno.c: 2056: if(com==1)
  1526  00114C  0448               	decf	uart_brg_set@com,w,c
  1527  00114E  A4D8               	btfss	status,2,c
  1528  001150  D005               	goto	l971
  1529                           
  1530                           ; BSR set to: 0
  1531                           ;picuno.c: 2057: {
  1532                           ;picuno.c: 2058: SPBRGH = brgh;
  1533  001152  C04A  FFB0         	movff	uart_brg_set@brgh,4016	;volatile
  1534                           
  1535                           ;picuno.c: 2059: SPBRG1 = brgl;
  1536  001156  C049  FFAF         	movff	uart_brg_set@brgl,4015	;volatile
  1537                           
  1538                           ;picuno.c: 2060: }
  1539  00115A  0012               	return	
  1540  00115C                     l971:
  1541                           
  1542                           ; BSR set to: 0
  1543                           ;picuno.c: 2061: else
  1544                           ;picuno.c: 2062: {
  1545                           ;picuno.c: 2064: SPBRGH2 = brgh;
  1546  00115C  C04A  FF76         	movff	uart_brg_set@brgh,3958	;volatile
  1547                           
  1548                           ;picuno.c: 2065: SPBRG2 = brgl;
  1549  001160  C049  FF75         	movff	uart_brg_set@brgl,3957	;volatile
  1550  001164  0012               	return	
  1551  001166                     __end_of_uart_brg_set:
  1552                           	opt stack 0
  1553                           tblptru	equ	0xFF8
  1554                           tblptrh	equ	0xFF7
  1555                           tblptrl	equ	0xFF6
  1556                           tablat	equ	0xFF5
  1557                           postinc0	equ	0xFEE
  1558                           wreg	equ	0xFE8
  1559                           postdec1	equ	0xFE5
  1560                           fsr1l	equ	0xFE1
  1561                           status	equ	0xFD8
  1562                           
  1563 ;; *************** function _loop *****************
  1564 ;; Defined at:
  1565 ;;		line 51 in file "lab4_template.c"
  1566 ;; Parameters:    Size  Location     Type
  1567 ;;		None
  1568 ;; Auto vars:     Size  Location     Type
  1569 ;;  i               1   10[BANK0 ] unsigned char 
  1570 ;;  i               1    9[BANK0 ] unsigned char 
  1571 ;; Return value:  Size  Location     Type
  1572 ;;		None               void
  1573 ;; Registers used:
  1574 ;;		wreg, fsr0l, fsr0h, fsr2l, fsr2h, status,2, status,0, tblptrl, tblptrh, tblptru, prodl, prodh, cstack
  1575 ;; Tracked objects:
  1576 ;;		On entry : 0/0
  1577 ;;		On exit  : 0/0
  1578 ;;		Unchanged: 0/0
  1579 ;; Data sizes:     COMRAM   BANK0   BANK1   BANK2   BANK3   BANK4   BANK5
  1580 ;;      Params:         0       0       0       0       0       0       0
  1581 ;;      Locals:         0       2       0       0       0       0       0
  1582 ;;      Temps:          0       0       0       0       0       0       0
  1583 ;;      Totals:         0       2       0       0       0       0       0
  1584 ;;Total ram usage:        2 bytes
  1585 ;; Hardware stack levels used:    1
  1586 ;; Hardware stack levels required when called:    7
  1587 ;; This function calls:
  1588 ;;		_Serial2_available
  1589 ;;		_Serial2_println
  1590 ;;		_Serial2_read
  1591 ;;		_delay
  1592 ;;		_digitalRead
  1593 ;;		_digitalWrite
  1594 ;;		_enable_motor
  1595 ;;		_pwm_out
  1596 ;;		_sprintf
  1597 ;;		_stop
  1598 ;;		_timerSet
  1599 ;;		_timerUp
  1600 ;; This function is called by:
  1601 ;;		_main
  1602 ;; This function uses a non-reentrant model
  1603 ;;
  1604                           
  1605                           	psect	text7
  1606  001166                     __ptext7:
  1607                           	opt stack 0
  1608  001166                     _loop:
  1609                           	opt stack 23
  1610                           
  1611                           ;lab4_template.c: 54: enable_motor();
  1612                           
  1613                           ; BSR set to: 0
  1614                           ;incstack = 0
  1615  001166  EC33  F00C         	call	_enable_motor	;wreg free
  1616                           
  1617                           ;lab4_template.c: 55: digitalWrite(1,0x00);
  1618  00116A  0E00               	movlw	0
  1619  00116C  6E42               	movwf	digitalWrite@value,c
  1620  00116E  0E01               	movlw	1
  1621  001170  ECBA  F005         	call	_digitalWrite
  1622                           
  1623                           ;lab4_template.c: 56: digitalWrite(2,0x01);
  1624  001174  0E01               	movlw	1
  1625  001176  6E42               	movwf	digitalWrite@value,c
  1626  001178  0E02               	movlw	2
  1627  00117A  ECBA  F005         	call	_digitalWrite
  1628                           
  1629                           ;lab4_template.c: 57: digitalWrite(24,0x01);
  1630  00117E  0E01               	movlw	1
  1631  001180  6E42               	movwf	digitalWrite@value,c
  1632  001182  0E18               	movlw	24
  1633  001184  ECBA  F005         	call	_digitalWrite
  1634                           
  1635                           ;lab4_template.c: 58: pwm_out(1, 200);
  1636  001188  0E00               	movlw	0
  1637  00118A  6E41               	movwf	pwm_out@dutyValue+1,c
  1638  00118C  0EC8               	movlw	200
  1639  00118E  6E40               	movwf	pwm_out@dutyValue,c
  1640  001190  0E01               	movlw	1
  1641  001192  ECA0  F00B         	call	_pwm_out
  1642                           
  1643                           ;lab4_template.c: 59: pwm_out(2, 200);
  1644  001196  0E00               	movlw	0
  1645  001198  6E41               	movwf	pwm_out@dutyValue+1,c
  1646  00119A  0EC8               	movlw	200
  1647  00119C  6E40               	movwf	pwm_out@dutyValue,c
  1648  00119E  0E02               	movlw	2
  1649  0011A0  ECA0  F00B         	call	_pwm_out
  1650                           
  1651                           ;lab4_template.c: 60: pwm_out(3, 0);
  1652  0011A4  0E00               	movlw	0
  1653  0011A6  6E41               	movwf	pwm_out@dutyValue+1,c
  1654  0011A8  0E00               	movlw	0
  1655  0011AA  6E40               	movwf	pwm_out@dutyValue,c
  1656  0011AC  0E03               	movlw	3
  1657  0011AE  ECA0  F00B         	call	_pwm_out
  1658                           
  1659                           ;lab4_template.c: 61: delay(3000);
  1660  0011B2  0E0B               	movlw	11
  1661  0011B4  6E41               	movwf	delay@ms+1,c
  1662  0011B6  0EB8               	movlw	184
  1663  0011B8  6E40               	movwf	delay@ms,c
  1664  0011BA  ECD4  F00B         	call	_delay	;wreg free
  1665                           
  1666                           ;lab4_template.c: 62: stop();
  1667  0011BE  ECFF  F00B         	call	_stop	;wreg free
  1668  0011C2                     l1413:
  1669  0011C2  D7FF               	goto	l1413
  1670  0011C4                     l6552:
  1671                           
  1672                           ; BSR set to: 0
  1673                           ;lab4_template.c: 77: pwm_out(1,i);
  1674  0011C4  0100               	movlb	0	; () banked
  1675  0011C6  C0F6  F040         	movff	loop@i,pwm_out@dutyValue
  1676  0011CA  6A41               	clrf	pwm_out@dutyValue+1,c
  1677  0011CC  0E01               	movlw	1
  1678  0011CE  ECA0  F00B         	call	_pwm_out
  1679                           
  1680                           ;lab4_template.c: 78: pwm_out(2,i);
  1681  0011D2  0100               	movlb	0	; () banked
  1682  0011D4  C0F6  F040         	movff	loop@i,pwm_out@dutyValue
  1683  0011D8  6A41               	clrf	pwm_out@dutyValue+1,c
  1684  0011DA  0E02               	movlw	2
  1685  0011DC  ECA0  F00B         	call	_pwm_out
  1686                           
  1687                           ;lab4_template.c: 79: pwm_out(3,i);
  1688  0011E0  0100               	movlb	0	; () banked
  1689  0011E2  C0F6  F040         	movff	loop@i,pwm_out@dutyValue
  1690  0011E6  6A41               	clrf	pwm_out@dutyValue+1,c
  1691  0011E8  0E03               	movlw	3
  1692  0011EA  ECA0  F00B         	call	_pwm_out
  1693                           
  1694                           ;lab4_template.c: 80: delay(100);
  1695  0011EE  0E00               	movlw	0
  1696  0011F0  6E41               	movwf	delay@ms+1,c
  1697  0011F2  0E64               	movlw	100
  1698  0011F4  6E40               	movwf	delay@ms,c
  1699  0011F6  ECD4  F00B         	call	_delay	;wreg free
  1700  0011FA  0100               	movlb	0	; () banked
  1701  0011FC  2BF6               	incf	loop@i& (0+255),f,b
  1702                           
  1703                           ; BSR set to: 0
  1704  0011FE  0100               	movlb	0	; () banked
  1705  001200  29F6               	incf	loop@i& (0+255),w,b
  1706  001202  B4D8               	btfsc	status,2,c
  1707  001204  D022               	goto	l6586
  1708  001206  D7DE               	goto	l6552
  1709  001208                     l6574:
  1710                           
  1711                           ; BSR set to: 0
  1712                           ;lab4_template.c: 90: pwm_out(1,i);
  1713  001208  0100               	movlb	0	; () banked
  1714  00120A  C0F7  F040         	movff	loop@i_3455,pwm_out@dutyValue
  1715  00120E  6A41               	clrf	pwm_out@dutyValue+1,c
  1716  001210  0E01               	movlw	1
  1717  001212  ECA0  F00B         	call	_pwm_out
  1718                           
  1719                           ;lab4_template.c: 91: pwm_out(2,i);
  1720  001216  0100               	movlb	0	; () banked
  1721  001218  C0F7  F040         	movff	loop@i_3455,pwm_out@dutyValue
  1722  00121C  6A41               	clrf	pwm_out@dutyValue+1,c
  1723  00121E  0E02               	movlw	2
  1724  001220  ECA0  F00B         	call	_pwm_out
  1725                           
  1726                           ;lab4_template.c: 92: pwm_out(3,i);
  1727  001224  0100               	movlb	0	; () banked
  1728  001226  C0F7  F040         	movff	loop@i_3455,pwm_out@dutyValue
  1729  00122A  6A41               	clrf	pwm_out@dutyValue+1,c
  1730  00122C  0E03               	movlw	3
  1731  00122E  ECA0  F00B         	call	_pwm_out
  1732                           
  1733                           ;lab4_template.c: 93: delay(100);
  1734  001232  0E00               	movlw	0
  1735  001234  6E41               	movwf	delay@ms+1,c
  1736  001236  0E64               	movlw	100
  1737  001238  6E40               	movwf	delay@ms,c
  1738  00123A  ECD4  F00B         	call	_delay	;wreg free
  1739  00123E  0100               	movlb	0	; () banked
  1740  001240  2BF7               	incf	loop@i_3455& (0+255),f,b
  1741                           
  1742                           ; BSR set to: 0
  1743  001242  0100               	movlb	0	; () banked
  1744  001244  29F7               	incf	loop@i_3455& (0+255),w,b
  1745  001246  A4D8               	btfss	status,2,c
  1746  001248  D7DF               	goto	l6574
  1747  00124A                     l6586:
  1748                           
  1749                           ;lab4_template.c: 99: }
  1750                           ;lab4_template.c: 101: if(timerUp(9)){
  1751  00124A  0E09               	movlw	9
  1752  00124C  ECBC  F00B         	call	_timerUp
  1753  001250  0900               	iorlw	0
  1754  001252  B4D8               	btfsc	status,2,c
  1755  001254  0012               	return	
  1756                           
  1757                           ;lab4_template.c: 102: timerSet(9,250);
  1758  001256  0EFA               	movlw	250
  1759  001258  0100               	movlb	0	; () banked
  1760  00125A  6FF2               	movwf	timerSet@value& (0+255),b
  1761  00125C  0E00               	movlw	0
  1762  00125E  0100               	movlb	0	; () banked
  1763  001260  6FF3               	movwf	(timerSet@value+1)& (0+255),b
  1764  001262  0E00               	movlw	0
  1765  001264  0100               	movlb	0	; () banked
  1766  001266  6FF4               	movwf	(timerSet@value+2)& (0+255),b
  1767  001268  0E00               	movlw	0
  1768  00126A  0100               	movlb	0	; () banked
  1769  00126C  6FF5               	movwf	(timerSet@value+3)& (0+255),b
  1770  00126E  0E09               	movlw	9
  1771  001270  ECD1  F00A         	call	_timerSet
  1772                           
  1773                           ;lab4_template.c: 103: digitalWrite(14, digitalRead(14)^1);
  1774  001274  0E0E               	movlw	14
  1775  001276  ECF9  F006         	call	_digitalRead
  1776  00127A  0A01               	xorlw	1
  1777  00127C  6E42               	movwf	digitalWrite@value,c
  1778  00127E  0E0E               	movlw	14
  1779  001280  ECBA  F005         	call	_digitalWrite
  1780  001284  0012               	return	
  1781  001286                     __end_of_loop:
  1782                           	opt stack 0
  1783                           tblptru	equ	0xFF8
  1784                           tblptrh	equ	0xFF7
  1785                           tblptrl	equ	0xFF6
  1786                           tablat	equ	0xFF5
  1787                           postinc0	equ	0xFEE
  1788                           wreg	equ	0xFE8
  1789                           postdec1	equ	0xFE5
  1790                           fsr1l	equ	0xFE1
  1791                           status	equ	0xFD8
  1792                           
  1793 ;; *************** function _timerUp *****************
  1794 ;; Defined at:
  1795 ;;		line 404 in file "picuno.c"
  1796 ;; Parameters:    Size  Location     Type
  1797 ;;  index           1    wreg     unsigned char 
  1798 ;; Auto vars:     Size  Location     Type
  1799 ;;  index           1   17[COMRAM] unsigned char 
  1800 ;; Return value:  Size  Location     Type
  1801 ;;                  1    wreg      unsigned char 
  1802 ;; Registers used:
  1803 ;;		wreg, fsr2l, fsr2h, status,2, status,0, prodl, prodh
  1804 ;; Tracked objects:
  1805 ;;		On entry : 0/0
  1806 ;;		On exit  : 0/0
  1807 ;;		Unchanged: 0/0
  1808 ;; Data sizes:     COMRAM   BANK0   BANK1   BANK2   BANK3   BANK4   BANK5
  1809 ;;      Params:         0       0       0       0       0       0       0
  1810 ;;      Locals:         1       0       0       0       0       0       0
  1811 ;;      Temps:          0       0       0       0       0       0       0
  1812 ;;      Totals:         1       0       0       0       0       0       0
  1813 ;;Total ram usage:        1 bytes
  1814 ;; Hardware stack levels used:    1
  1815 ;; Hardware stack levels required when called:    3
  1816 ;; This function calls:
  1817 ;;		Nothing
  1818 ;; This function is called by:
  1819 ;;		_loop
  1820 ;; This function uses a non-reentrant model
  1821 ;;
  1822                           
  1823                           	psect	text8
  1824  001778                     __ptext8:
  1825                           	opt stack 0
  1826  001778                     _timerUp:
  1827                           	opt stack 26
  1828                           
  1829                           ;incstack = 0
  1830                           ;timerUp@index stored from wreg
  1831  001778  6E40               	movwf	timerUp@index,c
  1832                           
  1833                           ;picuno.c: 406: if(index>=10) return 0;
  1834  00177A  0E09               	movlw	9
  1835  00177C  6440               	cpfsgt	timerUp@index,c
  1836  00177E  D002               	goto	l6372
  1837  001780  0E00               	movlw	0
  1838  001782  0012               	return	
  1839  001784                     l6372:
  1840                           
  1841                           ;picuno.c: 407: if(TimerArray[index]) return 0;
  1842  001784  5040               	movf	timerUp@index,w,c
  1843  001786  0D02               	mullw	2
  1844  001788  0100               	movlb	0	; () banked
  1845  00178A  0EA2               	movlw	low _TimerArray
  1846  00178C  24F3               	addwf	prodl,w,c
  1847  00178E  6ED9               	movwf	fsr2l,c
  1848  001790  0100               	movlb	0	; () banked
  1849  001792  0E00               	movlw	high _TimerArray
  1850  001794  20F4               	addwfc	prodh,w,c
  1851  001796  6EDA               	movwf	fsr2h,c
  1852  001798  50DE               	movf	postinc2,w,c
  1853  00179A  10DD               	iorwf	postdec2,w,c
  1854  00179C  B4D8               	btfsc	status,2,c
  1855  00179E  D002               	goto	l6378
  1856                           
  1857                           ; BSR set to: 0
  1858  0017A0  0E00               	movlw	0
  1859  0017A2  0012               	return	
  1860  0017A4                     l6378:
  1861                           
  1862                           ; BSR set to: 0
  1863                           ;picuno.c: 408: return 1;
  1864  0017A4  0E01               	movlw	1
  1865  0017A6  0012               	return	
  1866  0017A8                     __end_of_timerUp:
  1867                           	opt stack 0
  1868                           tblptru	equ	0xFF8
  1869                           tblptrh	equ	0xFF7
  1870                           tblptrl	equ	0xFF6
  1871                           tablat	equ	0xFF5
  1872                           prodh	equ	0xFF4
  1873                           prodl	equ	0xFF3
  1874                           postinc0	equ	0xFEE
  1875                           wreg	equ	0xFE8
  1876                           postdec1	equ	0xFE5
  1877                           fsr1l	equ	0xFE1
  1878                           postinc2	equ	0xFDE
  1879                           postdec2	equ	0xFDD
  1880                           fsr2h	equ	0xFDA
  1881                           fsr2l	equ	0xFD9
  1882                           status	equ	0xFD8
  1883                           
  1884 ;; *************** function _timerSet *****************
  1885 ;; Defined at:
  1886 ;;		line 396 in file "picuno.c"
  1887 ;; Parameters:    Size  Location     Type
  1888 ;;  index           1    wreg     unsigned char 
  1889 ;;  value           4    5[BANK0 ] unsigned long 
  1890 ;; Auto vars:     Size  Location     Type
  1891 ;;  index           1   25[COMRAM] unsigned char 
  1892 ;; Return value:  Size  Location     Type
  1893 ;;		None               void
  1894 ;; Registers used:
  1895 ;;		wreg, fsr2l, fsr2h, status,2, status,0, prodl, prodh, cstack
  1896 ;; Tracked objects:
  1897 ;;		On entry : 0/0
  1898 ;;		On exit  : 0/0
  1899 ;;		Unchanged: 0/0
  1900 ;; Data sizes:     COMRAM   BANK0   BANK1   BANK2   BANK3   BANK4   BANK5
  1901 ;;      Params:         0       4       0       0       0       0       0
  1902 ;;      Locals:         1       0       0       0       0       0       0
  1903 ;;      Temps:          0       0       0       0       0       0       0
  1904 ;;      Totals:         1       4       0       0       0       0       0
  1905 ;;Total ram usage:        5 bytes
  1906 ;; Hardware stack levels used:    1
  1907 ;; Hardware stack levels required when called:    4
  1908 ;; This function calls:
  1909 ;;		___lldiv
  1910 ;; This function is called by:
  1911 ;;		_loop
  1912 ;; This function uses a non-reentrant model
  1913 ;;
  1914                           
  1915                           	psect	text9
  1916  0015A2                     __ptext9:
  1917                           	opt stack 0
  1918  0015A2                     _timerSet:
  1919                           	opt stack 25
  1920                           
  1921                           ;incstack = 0
  1922                           ;timerSet@index stored from wreg
  1923  0015A2  6E48               	movwf	timerSet@index,c
  1924                           
  1925                           ;picuno.c: 398: if(index>=10) return;
  1926  0015A4  0E09               	movlw	9
  1927  0015A6  6448               	cpfsgt	timerSet@index,c
  1928  0015A8  D001               	goto	l6360
  1929  0015AA  0012               	return	
  1930  0015AC                     l6360:
  1931                           
  1932                           ;picuno.c: 399: value /= 10;
  1933  0015AC  C0F2  F040         	movff	timerSet@value,___lldiv@dividend
  1934  0015B0  C0F3  F041         	movff	timerSet@value+1,___lldiv@dividend+1
  1935  0015B4  C0F4  F042         	movff	timerSet@value+2,___lldiv@dividend+2
  1936  0015B8  C0F5  F043         	movff	timerSet@value+3,___lldiv@dividend+3
  1937  0015BC  0E0A               	movlw	10
  1938  0015BE  6E44               	movwf	___lldiv@divisor,c
  1939  0015C0  0E00               	movlw	0
  1940  0015C2  6E45               	movwf	___lldiv@divisor+1,c
  1941  0015C4  0E00               	movlw	0
  1942  0015C6  6E46               	movwf	___lldiv@divisor+2,c
  1943  0015C8  0E00               	movlw	0
  1944  0015CA  6E47               	movwf	___lldiv@divisor+3,c
  1945  0015CC  ECF4  F009         	call	___lldiv	;wreg free
  1946  0015D0  C040  F0F2         	movff	?___lldiv,timerSet@value
  1947  0015D4  C041  F0F3         	movff	?___lldiv+1,timerSet@value+1
  1948  0015D8  C042  F0F4         	movff	?___lldiv+2,timerSet@value+2
  1949  0015DC  C043  F0F5         	movff	?___lldiv+3,timerSet@value+3
  1950                           
  1951                           ;picuno.c: 400: TimerArray[index]=(unsigned int)value;
  1952  0015E0  5048               	movf	timerSet@index,w,c
  1953  0015E2  0D02               	mullw	2
  1954  0015E4  0100               	movlb	0	; () banked
  1955  0015E6  0EA2               	movlw	low _TimerArray
  1956  0015E8  24F3               	addwf	prodl,w,c
  1957  0015EA  6ED9               	movwf	fsr2l,c
  1958  0015EC  0100               	movlb	0	; () banked
  1959  0015EE  0E00               	movlw	high _TimerArray
  1960  0015F0  20F4               	addwfc	prodh,w,c
  1961  0015F2  6EDA               	movwf	fsr2h,c
  1962  0015F4  0100               	movlb	0	; () banked
  1963  0015F6  C0F2  FFDE         	movff	timerSet@value,postinc2
  1964  0015FA  0100               	movlb	0	; () banked
  1965  0015FC  C0F3  FFDD         	movff	timerSet@value+1,postdec2
  1966                           
  1967                           ; BSR set to: 0
  1968                           ;picuno.c: 401: TimerFlag=1;
  1969  001600  0E01               	movlw	1
  1970  001602  6E03               	movwf	_TimerFlag,c
  1971  001604  0012               	return	
  1972  001606                     __end_of_timerSet:
  1973                           	opt stack 0
  1974                           tblptru	equ	0xFF8
  1975                           tblptrh	equ	0xFF7
  1976                           tblptrl	equ	0xFF6
  1977                           tablat	equ	0xFF5
  1978                           prodh	equ	0xFF4
  1979                           prodl	equ	0xFF3
  1980                           postinc0	equ	0xFEE
  1981                           wreg	equ	0xFE8
  1982                           postdec1	equ	0xFE5
  1983                           fsr1l	equ	0xFE1
  1984                           postinc2	equ	0xFDE
  1985                           postdec2	equ	0xFDD
  1986                           fsr2h	equ	0xFDA
  1987                           fsr2l	equ	0xFD9
  1988                           status	equ	0xFD8
  1989                           
  1990 ;; *************** function ___lldiv *****************
  1991 ;; Defined at:
  1992 ;;		line 8 in file "C:\Program Files (x86)\Microchip\xc8\v1.33\sources\common\lldiv.c"
  1993 ;; Parameters:    Size  Location     Type
  1994 ;;  dividend        4   17[COMRAM] unsigned long 
  1995 ;;  divisor         4   21[COMRAM] unsigned long 
  1996 ;; Auto vars:     Size  Location     Type
  1997 ;;  quotient        4    0[BANK0 ] unsigned long 
  1998 ;;  counter         1    4[BANK0 ] unsigned char 
  1999 ;; Return value:  Size  Location     Type
  2000 ;;                  4   17[COMRAM] unsigned long 
  2001 ;; Registers used:
  2002 ;;		wreg, status,2, status,0
  2003 ;; Tracked objects:
  2004 ;;		On entry : 0/0
  2005 ;;		On exit  : 0/0
  2006 ;;		Unchanged: 0/0
  2007 ;; Data sizes:     COMRAM   BANK0   BANK1   BANK2   BANK3   BANK4   BANK5
  2008 ;;      Params:         8       0       0       0       0       0       0
  2009 ;;      Locals:         0       5       0       0       0       0       0
  2010 ;;      Temps:          0       0       0       0       0       0       0
  2011 ;;      Totals:         8       5       0       0       0       0       0
  2012 ;;Total ram usage:       13 bytes
  2013 ;; Hardware stack levels used:    1
  2014 ;; Hardware stack levels required when called:    3
  2015 ;; This function calls:
  2016 ;;		Nothing
  2017 ;; This function is called by:
  2018 ;;		_timerSet
  2019 ;;		_uart_brg_set
  2020 ;;		_i2c_init
  2021 ;; This function uses a non-reentrant model
  2022 ;;
  2023                           
  2024                           	psect	text10
  2025  0013E8                     __ptext10:
  2026                           	opt stack 0
  2027  0013E8                     ___lldiv:
  2028                           	opt stack 24
  2029                           
  2030                           ;incstack = 0
  2031  0013E8  0E00               	movlw	0
  2032  0013EA  0100               	movlb	0	; () banked
  2033  0013EC  6FED               	movwf	___lldiv@quotient& (0+255),b
  2034  0013EE  0E00               	movlw	0
  2035  0013F0  0100               	movlb	0	; () banked
  2036  0013F2  6FEE               	movwf	(___lldiv@quotient+1)& (0+255),b
  2037  0013F4  0E00               	movlw	0
  2038  0013F6  0100               	movlb	0	; () banked
  2039  0013F8  6FEF               	movwf	(___lldiv@quotient+2)& (0+255),b
  2040  0013FA  0E00               	movlw	0
  2041  0013FC  0100               	movlb	0	; () banked
  2042  0013FE  6FF0               	movwf	(___lldiv@quotient+3)& (0+255),b
  2043                           
  2044                           ; BSR set to: 0
  2045  001400  5047               	movf	___lldiv@divisor+3,w,c
  2046  001402  1044               	iorwf	___lldiv@divisor,w,c
  2047  001404  1045               	iorwf	___lldiv@divisor+1,w,c
  2048  001406  1046               	iorwf	___lldiv@divisor+2,w,c
  2049  001408  B4D8               	btfsc	status,2,c
  2050  00140A  D033               	goto	l1940
  2051                           
  2052                           ; BSR set to: 0
  2053  00140C  0E01               	movlw	1
  2054  00140E  0100               	movlb	0	; () banked
  2055  001410  6FF1               	movwf	___lldiv@counter& (0+255),b
  2056  001412  D007               	goto	l6278
  2057  001414                     l6276:
  2058                           
  2059                           ; BSR set to: 0
  2060  001414  90D8               	bcf	status,0,c
  2061  001416  3644               	rlcf	___lldiv@divisor,f,c
  2062  001418  3645               	rlcf	___lldiv@divisor+1,f,c
  2063  00141A  3646               	rlcf	___lldiv@divisor+2,f,c
  2064  00141C  3647               	rlcf	___lldiv@divisor+3,f,c
  2065  00141E  0100               	movlb	0	; () banked
  2066  001420  2BF1               	incf	___lldiv@counter& (0+255),f,b
  2067  001422                     l6278:
  2068                           
  2069                           ; BSR set to: 0
  2070  001422  AE47               	btfss	___lldiv@divisor+3,7,c
  2071  001424  D7F7               	goto	l6276
  2072  001426                     l6280:
  2073                           
  2074                           ; BSR set to: 0
  2075  001426  0100               	movlb	0	; () banked
  2076  001428  90D8               	bcf	status,0,c
  2077  00142A  0100               	movlb	0	; () banked
  2078  00142C  37ED               	rlcf	___lldiv@quotient& (0+255),f,b
  2079  00142E  0100               	movlb	0	; () banked
  2080  001430  37EE               	rlcf	(___lldiv@quotient+1)& (0+255),f,b
  2081  001432  0100               	movlb	0	; () banked
  2082  001434  37EF               	rlcf	(___lldiv@quotient+2)& (0+255),f,b
  2083  001436  0100               	movlb	0	; () banked
  2084  001438  37F0               	rlcf	(___lldiv@quotient+3)& (0+255),f,b
  2085                           
  2086                           ; BSR set to: 0
  2087  00143A  5044               	movf	___lldiv@divisor,w,c
  2088  00143C  5C40               	subwf	___lldiv@dividend,w,c
  2089  00143E  5045               	movf	___lldiv@divisor+1,w,c
  2090  001440  5841               	subwfb	___lldiv@dividend+1,w,c
  2091  001442  5046               	movf	___lldiv@divisor+2,w,c
  2092  001444  5842               	subwfb	___lldiv@dividend+2,w,c
  2093  001446  5047               	movf	___lldiv@divisor+3,w,c
  2094  001448  5843               	subwfb	___lldiv@dividend+3,w,c
  2095  00144A  A0D8               	btfss	status,0,c
  2096  00144C  D00A               	goto	l6288
  2097                           
  2098                           ; BSR set to: 0
  2099  00144E  5044               	movf	___lldiv@divisor,w,c
  2100  001450  5E40               	subwf	___lldiv@dividend,f,c
  2101  001452  5045               	movf	___lldiv@divisor+1,w,c
  2102  001454  5A41               	subwfb	___lldiv@dividend+1,f,c
  2103  001456  5046               	movf	___lldiv@divisor+2,w,c
  2104  001458  5A42               	subwfb	___lldiv@dividend+2,f,c
  2105  00145A  5047               	movf	___lldiv@divisor+3,w,c
  2106  00145C  5A43               	subwfb	___lldiv@dividend+3,f,c
  2107                           
  2108                           ; BSR set to: 0
  2109  00145E  0100               	movlb	0	; () banked
  2110  001460  81ED               	bsf	___lldiv@quotient& (0+255),0,b
  2111  001462                     l6288:
  2112                           
  2113                           ; BSR set to: 0
  2114  001462  90D8               	bcf	status,0,c
  2115  001464  3247               	rrcf	___lldiv@divisor+3,f,c
  2116  001466  3246               	rrcf	___lldiv@divisor+2,f,c
  2117  001468  3245               	rrcf	___lldiv@divisor+1,f,c
  2118  00146A  3244               	rrcf	___lldiv@divisor,f,c
  2119                           
  2120                           ; BSR set to: 0
  2121  00146C  0100               	movlb	0	; () banked
  2122  00146E  2FF1               	decfsz	___lldiv@counter& (0+255),f,b
  2123  001470  D7DA               	goto	l6280
  2124  001472                     l1940:
  2125                           
  2126                           ; BSR set to: 0
  2127  001472  C0ED  F040         	movff	___lldiv@quotient,?___lldiv
  2128  001476  C0EE  F041         	movff	___lldiv@quotient+1,?___lldiv+1
  2129  00147A  C0EF  F042         	movff	___lldiv@quotient+2,?___lldiv+2
  2130  00147E  C0F0  F043         	movff	___lldiv@quotient+3,?___lldiv+3
  2131                           
  2132                           ; BSR set to: 0
  2133  001482  0012               	return	
  2134  001484                     __end_of___lldiv:
  2135                           	opt stack 0
  2136                           tblptru	equ	0xFF8
  2137                           tblptrh	equ	0xFF7
  2138                           tblptrl	equ	0xFF6
  2139                           tablat	equ	0xFF5
  2140                           prodh	equ	0xFF4
  2141                           prodl	equ	0xFF3
  2142                           postinc0	equ	0xFEE
  2143                           wreg	equ	0xFE8
  2144                           postdec1	equ	0xFE5
  2145                           fsr1l	equ	0xFE1
  2146                           postinc2	equ	0xFDE
  2147                           postdec2	equ	0xFDD
  2148                           fsr2h	equ	0xFDA
  2149                           fsr2l	equ	0xFD9
  2150                           status	equ	0xFD8
  2151                           
  2152 ;; *************** function _stop *****************
  2153 ;; Defined at:
  2154 ;;		line 108 in file "lab4_template.c"
  2155 ;; Parameters:    Size  Location     Type
  2156 ;;		None
  2157 ;; Auto vars:     Size  Location     Type
  2158 ;;		None
  2159 ;; Return value:  Size  Location     Type
  2160 ;;		None               void
  2161 ;; Registers used:
  2162 ;;		wreg, status,2, status,0, cstack
  2163 ;; Tracked objects:
  2164 ;;		On entry : 0/0
  2165 ;;		On exit  : 0/0
  2166 ;;		Unchanged: 0/0
  2167 ;; Data sizes:     COMRAM   BANK0   BANK1   BANK2   BANK3   BANK4   BANK5
  2168 ;;      Params:         0       0       0       0       0       0       0
  2169 ;;      Locals:         0       0       0       0       0       0       0
  2170 ;;      Temps:          0       0       0       0       0       0       0
  2171 ;;      Totals:         0       0       0       0       0       0       0
  2172 ;;Total ram usage:        0 bytes
  2173 ;; Hardware stack levels used:    1
  2174 ;; Hardware stack levels required when called:    6
  2175 ;; This function calls:
  2176 ;;		_delay
  2177 ;;		_digitalWrite
  2178 ;;		_disable_motor
  2179 ;; This function is called by:
  2180 ;;		_loop
  2181 ;; This function uses a non-reentrant model
  2182 ;;
  2183                           
  2184                           	psect	text11
  2185  0017FE                     __ptext11:
  2186                           	opt stack 0
  2187  0017FE                     _stop:
  2188                           	opt stack 23
  2189                           
  2190                           ;lab4_template.c: 109: disable_motor();
  2191                           
  2192                           ; BSR set to: 0
  2193                           ;incstack = 0
  2194  0017FE  EC23  F00C         	call	_disable_motor	;wreg free
  2195                           
  2196                           ;lab4_template.c: 110: digitalWrite(15, 0x01);
  2197  001802  0E01               	movlw	1
  2198  001804  6E42               	movwf	digitalWrite@value,c
  2199  001806  0E0F               	movlw	15
  2200  001808  ECBA  F005         	call	_digitalWrite
  2201                           
  2202                           ;lab4_template.c: 111: delay(150);
  2203  00180C  0E00               	movlw	0
  2204  00180E  6E41               	movwf	delay@ms+1,c
  2205  001810  0E96               	movlw	150
  2206  001812  6E40               	movwf	delay@ms,c
  2207  001814  ECD4  F00B         	call	_delay	;wreg free
  2208                           
  2209                           ;lab4_template.c: 112: digitalWrite(15, 0x00);
  2210  001818  0E00               	movlw	0
  2211  00181A  6E42               	movwf	digitalWrite@value,c
  2212  00181C  0E0F               	movlw	15
  2213  00181E  ECBA  F005         	call	_digitalWrite
  2214  001822  0012               	return	
  2215  001824                     __end_of_stop:
  2216                           	opt stack 0
  2217                           tblptru	equ	0xFF8
  2218                           tblptrh	equ	0xFF7
  2219                           tblptrl	equ	0xFF6
  2220                           tablat	equ	0xFF5
  2221                           prodh	equ	0xFF4
  2222                           prodl	equ	0xFF3
  2223                           postinc0	equ	0xFEE
  2224                           wreg	equ	0xFE8
  2225                           postdec1	equ	0xFE5
  2226                           fsr1l	equ	0xFE1
  2227                           postinc2	equ	0xFDE
  2228                           postdec2	equ	0xFDD
  2229                           fsr2h	equ	0xFDA
  2230                           fsr2l	equ	0xFD9
  2231                           status	equ	0xFD8
  2232                           
  2233 ;; *************** function _disable_motor *****************
  2234 ;; Defined at:
  2235 ;;		line 115 in file "lab4_template.c"
  2236 ;; Parameters:    Size  Location     Type
  2237 ;;		None
  2238 ;; Auto vars:     Size  Location     Type
  2239 ;;		None
  2240 ;; Return value:  Size  Location     Type
  2241 ;;		None               void
  2242 ;; Registers used:
  2243 ;;		wreg, status,2, status,0, cstack
  2244 ;; Tracked objects:
  2245 ;;		On entry : 0/0
  2246 ;;		On exit  : 0/0
  2247 ;;		Unchanged: 0/0
  2248 ;; Data sizes:     COMRAM   BANK0   BANK1   BANK2   BANK3   BANK4   BANK5
  2249 ;;      Params:         0       0       0       0       0       0       0
  2250 ;;      Locals:         0       0       0       0       0       0       0
  2251 ;;      Temps:          0       0       0       0       0       0       0
  2252 ;;      Totals:         0       0       0       0       0       0       0
  2253 ;;Total ram usage:        0 bytes
  2254 ;; Hardware stack levels used:    1
  2255 ;; Hardware stack levels required when called:    5
  2256 ;; This function calls:
  2257 ;;		_pinMode
  2258 ;; This function is called by:
  2259 ;;		_setup
  2260 ;;		_stop
  2261 ;; This function uses a non-reentrant model
  2262 ;;
  2263                           
  2264                           	psect	text12
  2265  001846                     __ptext12:
  2266                           	opt stack 0
  2267  001846                     _disable_motor:
  2268                           	opt stack 24
  2269                           
  2270                           ;lab4_template.c: 116: pinMode(1,0x01);
  2271                           
  2272                           ;incstack = 0
  2273  001846  0E01               	movlw	1
  2274  001848  6E44               	movwf	pinMode@mode,c
  2275  00184A  0E01               	movlw	1
  2276  00184C  EC13  F003         	call	_pinMode
  2277                           
  2278                           ;lab4_template.c: 117: pinMode(2,0x01);
  2279  001850  0E01               	movlw	1
  2280  001852  6E44               	movwf	pinMode@mode,c
  2281  001854  0E02               	movlw	2
  2282  001856  EC13  F003         	call	_pinMode
  2283                           
  2284                           ;lab4_template.c: 118: pinMode(24,0x01);
  2285  00185A  0E01               	movlw	1
  2286  00185C  6E44               	movwf	pinMode@mode,c
  2287  00185E  0E18               	movlw	24
  2288  001860  EC13  F003         	call	_pinMode
  2289  001864  0012               	return	
  2290  001866                     __end_of_disable_motor:
  2291                           	opt stack 0
  2292                           tblptru	equ	0xFF8
  2293                           tblptrh	equ	0xFF7
  2294                           tblptrl	equ	0xFF6
  2295                           tablat	equ	0xFF5
  2296                           prodh	equ	0xFF4
  2297                           prodl	equ	0xFF3
  2298                           postinc0	equ	0xFEE
  2299                           wreg	equ	0xFE8
  2300                           postdec1	equ	0xFE5
  2301                           fsr1l	equ	0xFE1
  2302                           postinc2	equ	0xFDE
  2303                           postdec2	equ	0xFDD
  2304                           fsr2h	equ	0xFDA
  2305                           fsr2l	equ	0xFD9
  2306                           status	equ	0xFD8
  2307                           
  2308 ;; *************** function _digitalWrite *****************
  2309 ;; Defined at:
  2310 ;;		line 1507 in file "picuno.c"
  2311 ;; Parameters:    Size  Location     Type
  2312 ;;  pin             1    wreg     unsigned char 
  2313 ;;  value           1   19[COMRAM] unsigned char 
  2314 ;; Auto vars:     Size  Location     Type
  2315 ;;  pin             1   20[COMRAM] unsigned char 
  2316 ;; Return value:  Size  Location     Type
  2317 ;;		None               void
  2318 ;; Registers used:
  2319 ;;		wreg, status,2, status,0
  2320 ;; Tracked objects:
  2321 ;;		On entry : 0/0
  2322 ;;		On exit  : 0/0
  2323 ;;		Unchanged: 0/0
  2324 ;; Data sizes:     COMRAM   BANK0   BANK1   BANK2   BANK3   BANK4   BANK5
  2325 ;;      Params:         1       0       0       0       0       0       0
  2326 ;;      Locals:         1       0       0       0       0       0       0
  2327 ;;      Temps:          0       0       0       0       0       0       0
  2328 ;;      Totals:         2       0       0       0       0       0       0
  2329 ;;Total ram usage:        2 bytes
  2330 ;; Hardware stack levels used:    1
  2331 ;; Hardware stack levels required when called:    3
  2332 ;; This function calls:
  2333 ;;		Nothing
  2334 ;; This function is called by:
  2335 ;;		_setup
  2336 ;;		_loop
  2337 ;;		_stop
  2338 ;;		_keypad_begin34
  2339 ;;		_keypad_begin44
  2340 ;;		_keypadRead
  2341 ;;		_lcd_nibble
  2342 ;;		_lcd_putdata
  2343 ;;		_lcd_putc
  2344 ;; This function uses a non-reentrant model
  2345 ;;
  2346                           
  2347                           	psect	text13
  2348  000B74                     __ptext13:
  2349                           	opt stack 0
  2350  000B74                     _digitalWrite:
  2351                           	opt stack 26
  2352                           
  2353                           ;incstack = 0
  2354                           ;digitalWrite@pin stored from wreg
  2355  000B74  6E43               	movwf	digitalWrite@pin,c
  2356                           
  2357                           ;picuno.c: 1509: switch(pin)
  2358  000B76  D0D2               	goto	l6308
  2359  000B78                     l699:
  2360  000B78  B042               	btfsc	digitalWrite@value,0,c
  2361  000B7A  D002               	bra	u7545
  2362  000B7C  9089               	bcf	3977,0,c	;volatile
  2363  000B7E  D001               	bra	u7546
  2364  000B80                     u7545:
  2365  000B80  8089               	bsf	3977,0,c	;volatile
  2366  000B82                     u7546:
  2367  000B82  0012               	return	
  2368  000B84                     l701:
  2369  000B84  B042               	btfsc	digitalWrite@value,0,c
  2370  000B86  D002               	bra	u7555
  2371  000B88  9289               	bcf	3977,1,c	;volatile
  2372  000B8A  D001               	bra	u7556
  2373  000B8C                     u7555:
  2374  000B8C  8289               	bsf	3977,1,c	;volatile
  2375  000B8E                     u7556:
  2376  000B8E  0012               	return	
  2377  000B90                     l702:
  2378  000B90  B042               	btfsc	digitalWrite@value,0,c
  2379  000B92  D002               	bra	u7565
  2380  000B94  9489               	bcf	3977,2,c	;volatile
  2381  000B96  D001               	bra	u7566
  2382  000B98                     u7565:
  2383  000B98  8489               	bsf	3977,2,c	;volatile
  2384  000B9A                     u7566:
  2385  000B9A  0012               	return	
  2386  000B9C                     l703:
  2387  000B9C  B042               	btfsc	digitalWrite@value,0,c
  2388  000B9E  D002               	bra	u7575
  2389  000BA0  9689               	bcf	3977,3,c	;volatile
  2390  000BA2  D001               	bra	u7576
  2391  000BA4                     u7575:
  2392  000BA4  8689               	bsf	3977,3,c	;volatile
  2393  000BA6                     u7576:
  2394  000BA6  0012               	return	
  2395  000BA8                     l704:
  2396  000BA8  B042               	btfsc	digitalWrite@value,0,c
  2397  000BAA  D002               	bra	u7585
  2398  000BAC  9889               	bcf	3977,4,c	;volatile
  2399  000BAE  D001               	bra	u7586
  2400  000BB0                     u7585:
  2401  000BB0  8889               	bsf	3977,4,c	;volatile
  2402  000BB2                     u7586:
  2403  000BB2  0012               	return	
  2404  000BB4                     l705:
  2405  000BB4  B042               	btfsc	digitalWrite@value,0,c
  2406  000BB6  D002               	bra	u7595
  2407  000BB8  9A89               	bcf	3977,5,c	;volatile
  2408  000BBA  D001               	bra	u7596
  2409  000BBC                     u7595:
  2410  000BBC  8A89               	bsf	3977,5,c	;volatile
  2411  000BBE                     u7596:
  2412  000BBE  0012               	return	
  2413  000BC0                     l706:
  2414  000BC0  B042               	btfsc	digitalWrite@value,0,c
  2415  000BC2  D002               	bra	u7605
  2416  000BC4  9C89               	bcf	3977,6,c	;volatile
  2417  000BC6  D001               	bra	u7606
  2418  000BC8                     u7605:
  2419  000BC8  8C89               	bsf	3977,6,c	;volatile
  2420  000BCA                     u7606:
  2421  000BCA  0012               	return	
  2422  000BCC                     l707:
  2423  000BCC  B042               	btfsc	digitalWrite@value,0,c
  2424  000BCE  D002               	bra	u7615
  2425  000BD0  9E89               	bcf	3977,7,c	;volatile
  2426  000BD2  D001               	bra	u7616
  2427  000BD4                     u7615:
  2428  000BD4  8E89               	bsf	3977,7,c	;volatile
  2429  000BD6                     u7616:
  2430  000BD6  0012               	return	
  2431  000BD8                     l708:
  2432  000BD8  B042               	btfsc	digitalWrite@value,0,c
  2433  000BDA  D002               	bra	u7625
  2434  000BDC  908A               	bcf	3978,0,c	;volatile
  2435  000BDE  D001               	bra	u7626
  2436  000BE0                     u7625:
  2437  000BE0  808A               	bsf	3978,0,c	;volatile
  2438  000BE2                     u7626:
  2439  000BE2  0012               	return	
  2440  000BE4                     l709:
  2441  000BE4  B042               	btfsc	digitalWrite@value,0,c
  2442  000BE6  D002               	bra	u7635
  2443  000BE8  928A               	bcf	3978,1,c	;volatile
  2444  000BEA  D001               	bra	u7636
  2445  000BEC                     u7635:
  2446  000BEC  828A               	bsf	3978,1,c	;volatile
  2447  000BEE                     u7636:
  2448  000BEE  0012               	return	
  2449  000BF0                     l710:
  2450  000BF0  B042               	btfsc	digitalWrite@value,0,c
  2451  000BF2  D002               	bra	u7645
  2452  000BF4  948A               	bcf	3978,2,c	;volatile
  2453  000BF6  D001               	bra	u7646
  2454  000BF8                     u7645:
  2455  000BF8  848A               	bsf	3978,2,c	;volatile
  2456  000BFA                     u7646:
  2457  000BFA  0012               	return	
  2458  000BFC                     l711:
  2459  000BFC  B042               	btfsc	digitalWrite@value,0,c
  2460  000BFE  D002               	bra	u7655
  2461  000C00  968A               	bcf	3978,3,c	;volatile
  2462  000C02  D001               	bra	u7656
  2463  000C04                     u7655:
  2464  000C04  868A               	bsf	3978,3,c	;volatile
  2465  000C06                     u7656:
  2466  000C06  0012               	return	
  2467  000C08                     l712:
  2468  000C08  B042               	btfsc	digitalWrite@value,0,c
  2469  000C0A  D002               	bra	u7665
  2470  000C0C  988A               	bcf	3978,4,c	;volatile
  2471  000C0E  D001               	bra	u7666
  2472  000C10                     u7665:
  2473  000C10  888A               	bsf	3978,4,c	;volatile
  2474  000C12                     u7666:
  2475  000C12  0012               	return	
  2476  000C14                     l713:
  2477  000C14  B042               	btfsc	digitalWrite@value,0,c
  2478  000C16  D002               	bra	u7675
  2479  000C18  9A8A               	bcf	3978,5,c	;volatile
  2480  000C1A  D001               	bra	u7676
  2481  000C1C                     u7675:
  2482  000C1C  8A8A               	bsf	3978,5,c	;volatile
  2483  000C1E                     u7676:
  2484  000C1E  0012               	return	
  2485  000C20                     l714:
  2486  000C20  B042               	btfsc	digitalWrite@value,0,c
  2487  000C22  D002               	bra	u7685
  2488  000C24  9C8A               	bcf	3978,6,c	;volatile
  2489  000C26  D001               	bra	u7686
  2490  000C28                     u7685:
  2491  000C28  8C8A               	bsf	3978,6,c	;volatile
  2492  000C2A                     u7686:
  2493  000C2A  0012               	return	
  2494  000C2C                     l715:
  2495  000C2C  B042               	btfsc	digitalWrite@value,0,c
  2496  000C2E  D002               	bra	u7695
  2497  000C30  9E8A               	bcf	3978,7,c	;volatile
  2498  000C32  D001               	bra	u7696
  2499  000C34                     u7695:
  2500  000C34  8E8A               	bsf	3978,7,c	;volatile
  2501  000C36                     u7696:
  2502  000C36  0012               	return	
  2503  000C38                     l716:
  2504  000C38  B042               	btfsc	digitalWrite@value,0,c
  2505  000C3A  D002               	bra	u7705
  2506  000C3C  908B               	bcf	3979,0,c	;volatile
  2507  000C3E  D001               	bra	u7706
  2508  000C40                     u7705:
  2509  000C40  808B               	bsf	3979,0,c	;volatile
  2510  000C42                     u7706:
  2511  000C42  0012               	return	
  2512  000C44                     l717:
  2513  000C44  B042               	btfsc	digitalWrite@value,0,c
  2514  000C46  D002               	bra	u7715
  2515  000C48  928B               	bcf	3979,1,c	;volatile
  2516  000C4A  D001               	bra	u7716
  2517  000C4C                     u7715:
  2518  000C4C  828B               	bsf	3979,1,c	;volatile
  2519  000C4E                     u7716:
  2520  000C4E  0012               	return	
  2521  000C50                     l718:
  2522  000C50  B042               	btfsc	digitalWrite@value,0,c
  2523  000C52  D002               	bra	u7725
  2524  000C54  948B               	bcf	3979,2,c	;volatile
  2525  000C56  D001               	bra	u7726
  2526  000C58                     u7725:
  2527  000C58  848B               	bsf	3979,2,c	;volatile
  2528  000C5A                     u7726:
  2529  000C5A  0012               	return	
  2530  000C5C                     l719:
  2531  000C5C  B042               	btfsc	digitalWrite@value,0,c
  2532  000C5E  D002               	bra	u7735
  2533  000C60  968B               	bcf	3979,3,c	;volatile
  2534  000C62  D001               	bra	u7736
  2535  000C64                     u7735:
  2536  000C64  868B               	bsf	3979,3,c	;volatile
  2537  000C66                     u7736:
  2538  000C66  0012               	return	
  2539  000C68                     l720:
  2540  000C68  B042               	btfsc	digitalWrite@value,0,c
  2541  000C6A  D002               	bra	u7745
  2542  000C6C  988B               	bcf	3979,4,c	;volatile
  2543  000C6E  D001               	bra	u7746
  2544  000C70                     u7745:
  2545  000C70  888B               	bsf	3979,4,c	;volatile
  2546  000C72                     u7746:
  2547  000C72  0012               	return	
  2548  000C74                     l721:
  2549  000C74  B042               	btfsc	digitalWrite@value,0,c
  2550  000C76  D002               	bra	u7755
  2551  000C78  9A8B               	bcf	3979,5,c	;volatile
  2552  000C7A  D001               	bra	u7756
  2553  000C7C                     u7755:
  2554  000C7C  8A8B               	bsf	3979,5,c	;volatile
  2555  000C7E                     u7756:
  2556  000C7E  0012               	return	
  2557  000C80                     l722:
  2558  000C80  B042               	btfsc	digitalWrite@value,0,c
  2559  000C82  D002               	bra	u7765
  2560  000C84  9C8B               	bcf	3979,6,c	;volatile
  2561  000C86  D001               	bra	u7766
  2562  000C88                     u7765:
  2563  000C88  8C8B               	bsf	3979,6,c	;volatile
  2564  000C8A                     u7766:
  2565  000C8A  0012               	return	
  2566  000C8C                     l723:
  2567  000C8C  B042               	btfsc	digitalWrite@value,0,c
  2568  000C8E  D002               	bra	u7775
  2569  000C90  9E8B               	bcf	3979,7,c	;volatile
  2570  000C92  D001               	bra	u7776
  2571  000C94                     u7775:
  2572  000C94  8E8B               	bsf	3979,7,c	;volatile
  2573  000C96                     u7776:
  2574  000C96  0012               	return	
  2575  000C98                     l724:
  2576  000C98  B042               	btfsc	digitalWrite@value,0,c
  2577  000C9A  D002               	bra	u7785
  2578  000C9C  908C               	bcf	3980,0,c	;volatile
  2579  000C9E  D001               	bra	u7786
  2580  000CA0                     u7785:
  2581  000CA0  808C               	bsf	3980,0,c	;volatile
  2582  000CA2                     u7786:
  2583  000CA2  0012               	return	
  2584  000CA4                     l725:
  2585  000CA4  B042               	btfsc	digitalWrite@value,0,c
  2586  000CA6  D002               	bra	u7795
  2587  000CA8  928C               	bcf	3980,1,c	;volatile
  2588  000CAA  D001               	bra	u7796
  2589  000CAC                     u7795:
  2590  000CAC  828C               	bsf	3980,1,c	;volatile
  2591  000CAE                     u7796:
  2592  000CAE  0012               	return	
  2593  000CB0                     l726:
  2594  000CB0  B042               	btfsc	digitalWrite@value,0,c
  2595  000CB2  D002               	bra	u7805
  2596  000CB4  948C               	bcf	3980,2,c	;volatile
  2597  000CB6  D001               	bra	u7806
  2598  000CB8                     u7805:
  2599  000CB8  848C               	bsf	3980,2,c	;volatile
  2600  000CBA                     u7806:
  2601  000CBA  0012               	return	
  2602  000CBC                     l727:
  2603  000CBC  B042               	btfsc	digitalWrite@value,0,c
  2604  000CBE  D002               	bra	u7815
  2605  000CC0  968C               	bcf	3980,3,c	;volatile
  2606  000CC2  D001               	bra	u7816
  2607  000CC4                     u7815:
  2608  000CC4  868C               	bsf	3980,3,c	;volatile
  2609  000CC6                     u7816:
  2610  000CC6  0012               	return	
  2611  000CC8                     l728:
  2612  000CC8  B042               	btfsc	digitalWrite@value,0,c
  2613  000CCA  D002               	bra	u7825
  2614  000CCC  988C               	bcf	3980,4,c	;volatile
  2615  000CCE  D001               	bra	u7826
  2616  000CD0                     u7825:
  2617  000CD0  888C               	bsf	3980,4,c	;volatile
  2618  000CD2                     u7826:
  2619  000CD2  0012               	return	
  2620  000CD4                     l729:
  2621  000CD4  B042               	btfsc	digitalWrite@value,0,c
  2622  000CD6  D002               	bra	u7835
  2623  000CD8  9A8C               	bcf	3980,5,c	;volatile
  2624  000CDA  D001               	bra	u7836
  2625  000CDC                     u7835:
  2626  000CDC  8A8C               	bsf	3980,5,c	;volatile
  2627  000CDE                     u7836:
  2628  000CDE  0012               	return	
  2629  000CE0                     l730:
  2630  000CE0  B042               	btfsc	digitalWrite@value,0,c
  2631  000CE2  D002               	bra	u7845
  2632  000CE4  9C8C               	bcf	3980,6,c	;volatile
  2633  000CE6  D001               	bra	u7846
  2634  000CE8                     u7845:
  2635  000CE8  8C8C               	bsf	3980,6,c	;volatile
  2636  000CEA                     u7846:
  2637  000CEA  0012               	return	
  2638  000CEC                     l731:
  2639  000CEC  B042               	btfsc	digitalWrite@value,0,c
  2640  000CEE  D002               	bra	u7855
  2641  000CF0  9E8C               	bcf	3980,7,c	;volatile
  2642  000CF2  D001               	bra	u7856
  2643  000CF4                     u7855:
  2644  000CF4  8E8C               	bsf	3980,7,c	;volatile
  2645  000CF6                     u7856:
  2646  000CF6  0012               	return	
  2647  000CF8                     l732:
  2648  000CF8  B042               	btfsc	digitalWrite@value,0,c
  2649  000CFA  D002               	bra	u7865
  2650  000CFC  908D               	bcf	3981,0,c	;volatile
  2651  000CFE  D001               	bra	u7866
  2652  000D00                     u7865:
  2653  000D00  808D               	bsf	3981,0,c	;volatile
  2654  000D02                     u7866:
  2655  000D02  0012               	return	
  2656  000D04                     l733:
  2657  000D04  B042               	btfsc	digitalWrite@value,0,c
  2658  000D06  D002               	bra	u7875
  2659  000D08  928D               	bcf	3981,1,c	;volatile
  2660  000D0A  D001               	bra	u7876
  2661  000D0C                     u7875:
  2662  000D0C  828D               	bsf	3981,1,c	;volatile
  2663  000D0E                     u7876:
  2664  000D0E  0012               	return	
  2665  000D10                     l734:
  2666  000D10  B042               	btfsc	digitalWrite@value,0,c
  2667  000D12  D002               	bra	u7885
  2668  000D14  948D               	bcf	3981,2,c	;volatile
  2669  000D16  D001               	bra	u7886
  2670  000D18                     u7885:
  2671  000D18  848D               	bsf	3981,2,c	;volatile
  2672  000D1A                     u7886:
  2673  000D1A  0012               	return	
  2674  000D1C                     l6308:
  2675  000D1C  5043               	movf	digitalWrite@pin,w,c
  2676                           
  2677                           ; Switch size 1, requested type "space"
  2678                           ; Number of cases is 35, Range of values is 0 to 34
  2679                           ; switch strategies available:
  2680                           ; Name         Instructions Cycles
  2681                           ; simple_byte          106    54 (average)
  2682                           ;	Chosen strategy is simple_byte
  2683  000D1E  0A00               	xorlw	0	; case 0
  2684  000D20  B4D8               	btfsc	status,2,c
  2685  000D22  D72A               	goto	l699
  2686  000D24  0A01               	xorlw	1	; case 1
  2687  000D26  B4D8               	btfsc	status,2,c
  2688  000D28  D72D               	goto	l701
  2689  000D2A  0A03               	xorlw	3	; case 2
  2690  000D2C  B4D8               	btfsc	status,2,c
  2691  000D2E  D730               	goto	l702
  2692  000D30  0A01               	xorlw	1	; case 3
  2693  000D32  B4D8               	btfsc	status,2,c
  2694  000D34  D733               	goto	l703
  2695  000D36  0A07               	xorlw	7	; case 4
  2696  000D38  B4D8               	btfsc	status,2,c
  2697  000D3A  D736               	goto	l704
  2698  000D3C  0A01               	xorlw	1	; case 5
  2699  000D3E  B4D8               	btfsc	status,2,c
  2700  000D40  D739               	goto	l705
  2701  000D42  0A03               	xorlw	3	; case 6
  2702  000D44  B4D8               	btfsc	status,2,c
  2703  000D46  D73C               	goto	l706
  2704  000D48  0A01               	xorlw	1	; case 7
  2705  000D4A  B4D8               	btfsc	status,2,c
  2706  000D4C  D73F               	goto	l707
  2707  000D4E  0A0F               	xorlw	15	; case 8
  2708  000D50  B4D8               	btfsc	status,2,c
  2709  000D52  D742               	goto	l708
  2710  000D54  0A01               	xorlw	1	; case 9
  2711  000D56  B4D8               	btfsc	status,2,c
  2712  000D58  D745               	goto	l709
  2713  000D5A  0A03               	xorlw	3	; case 10
  2714  000D5C  B4D8               	btfsc	status,2,c
  2715  000D5E  D748               	goto	l710
  2716  000D60  0A01               	xorlw	1	; case 11
  2717  000D62  B4D8               	btfsc	status,2,c
  2718  000D64  D74B               	goto	l711
  2719  000D66  0A07               	xorlw	7	; case 12
  2720  000D68  B4D8               	btfsc	status,2,c
  2721  000D6A  D74E               	goto	l712
  2722  000D6C  0A01               	xorlw	1	; case 13
  2723  000D6E  B4D8               	btfsc	status,2,c
  2724  000D70  D751               	goto	l713
  2725  000D72  0A03               	xorlw	3	; case 14
  2726  000D74  B4D8               	btfsc	status,2,c
  2727  000D76  D754               	goto	l714
  2728  000D78  0A01               	xorlw	1	; case 15
  2729  000D7A  B4D8               	btfsc	status,2,c
  2730  000D7C  D757               	goto	l715
  2731  000D7E  0A1F               	xorlw	31	; case 16
  2732  000D80  B4D8               	btfsc	status,2,c
  2733  000D82  D75A               	goto	l716
  2734  000D84  0A01               	xorlw	1	; case 17
  2735  000D86  B4D8               	btfsc	status,2,c
  2736  000D88  D75D               	goto	l717
  2737  000D8A  0A03               	xorlw	3	; case 18
  2738  000D8C  B4D8               	btfsc	status,2,c
  2739  000D8E  D760               	goto	l718
  2740  000D90  0A01               	xorlw	1	; case 19
  2741  000D92  B4D8               	btfsc	status,2,c
  2742  000D94  D763               	goto	l719
  2743  000D96  0A07               	xorlw	7	; case 20
  2744  000D98  B4D8               	btfsc	status,2,c
  2745  000D9A  D766               	goto	l720
  2746  000D9C  0A01               	xorlw	1	; case 21
  2747  000D9E  B4D8               	btfsc	status,2,c
  2748  000DA0  D769               	goto	l721
  2749  000DA2  0A03               	xorlw	3	; case 22
  2750  000DA4  B4D8               	btfsc	status,2,c
  2751  000DA6  D76C               	goto	l722
  2752  000DA8  0A01               	xorlw	1	; case 23
  2753  000DAA  B4D8               	btfsc	status,2,c
  2754  000DAC  D76F               	goto	l723
  2755  000DAE  0A0F               	xorlw	15	; case 24
  2756  000DB0  B4D8               	btfsc	status,2,c
  2757  000DB2  D772               	goto	l724
  2758  000DB4  0A01               	xorlw	1	; case 25
  2759  000DB6  B4D8               	btfsc	status,2,c
  2760  000DB8  D775               	goto	l725
  2761  000DBA  0A03               	xorlw	3	; case 26
  2762  000DBC  B4D8               	btfsc	status,2,c
  2763  000DBE  D778               	goto	l726
  2764  000DC0  0A01               	xorlw	1	; case 27
  2765  000DC2  B4D8               	btfsc	status,2,c
  2766  000DC4  D77B               	goto	l727
  2767  000DC6  0A07               	xorlw	7	; case 28
  2768  000DC8  B4D8               	btfsc	status,2,c
  2769  000DCA  D77E               	goto	l728
  2770  000DCC  0A01               	xorlw	1	; case 29
  2771  000DCE  B4D8               	btfsc	status,2,c
  2772  000DD0  D781               	goto	l729
  2773  000DD2  0A03               	xorlw	3	; case 30
  2774  000DD4  B4D8               	btfsc	status,2,c
  2775  000DD6  D784               	goto	l730
  2776  000DD8  0A01               	xorlw	1	; case 31
  2777  000DDA  B4D8               	btfsc	status,2,c
  2778  000DDC  D787               	goto	l731
  2779  000DDE  0A3F               	xorlw	63	; case 32
  2780  000DE0  B4D8               	btfsc	status,2,c
  2781  000DE2  D78A               	goto	l732
  2782  000DE4  0A01               	xorlw	1	; case 33
  2783  000DE6  B4D8               	btfsc	status,2,c
  2784  000DE8  D78D               	goto	l733
  2785  000DEA  0A03               	xorlw	3	; case 34
  2786  000DEC  A4D8               	btfss	status,2,c
  2787  000DEE  0012               	return	
  2788  000DF0  D78F               	goto	l734
  2789  000DF2                     __end_of_digitalWrite:
  2790                           	opt stack 0
  2791                           tblptru	equ	0xFF8
  2792                           tblptrh	equ	0xFF7
  2793                           tblptrl	equ	0xFF6
  2794                           tablat	equ	0xFF5
  2795                           prodh	equ	0xFF4
  2796                           prodl	equ	0xFF3
  2797                           postinc0	equ	0xFEE
  2798                           wreg	equ	0xFE8
  2799                           postdec1	equ	0xFE5
  2800                           fsr1l	equ	0xFE1
  2801                           postinc2	equ	0xFDE
  2802                           postdec2	equ	0xFDD
  2803                           fsr2h	equ	0xFDA
  2804                           fsr2l	equ	0xFD9
  2805                           status	equ	0xFD8
  2806                           
  2807 ;; *************** function _delay *****************
  2808 ;; Defined at:
  2809 ;;		line 295 in file "picuno.c"
  2810 ;; Parameters:    Size  Location     Type
  2811 ;;  ms              2   17[COMRAM] unsigned int 
  2812 ;; Auto vars:     Size  Location     Type
  2813 ;;  i               2   19[COMRAM] unsigned int 
  2814 ;; Return value:  Size  Location     Type
  2815 ;;		None               void
  2816 ;; Registers used:
  2817 ;;		wreg, status,2, status,0
  2818 ;; Tracked objects:
  2819 ;;		On entry : 0/0
  2820 ;;		On exit  : 0/0
  2821 ;;		Unchanged: 0/0
  2822 ;; Data sizes:     COMRAM   BANK0   BANK1   BANK2   BANK3   BANK4   BANK5
  2823 ;;      Params:         2       0       0       0       0       0       0
  2824 ;;      Locals:         2       0       0       0       0       0       0
  2825 ;;      Temps:          0       0       0       0       0       0       0
  2826 ;;      Totals:         4       0       0       0       0       0       0
  2827 ;;Total ram usage:        4 bytes
  2828 ;; Hardware stack levels used:    1
  2829 ;; Hardware stack levels required when called:    3
  2830 ;; This function calls:
  2831 ;;		Nothing
  2832 ;; This function is called by:
  2833 ;;		_loop
  2834 ;;		_stop
  2835 ;;		_lcd_begin
  2836 ;; This function uses a non-reentrant model
  2837 ;;
  2838                           
  2839                           	psect	text14
  2840  0017A8                     __ptext14:
  2841                           	opt stack 0
  2842  0017A8                     _delay:
  2843                           	opt stack 25
  2844                           
  2845                           ;incstack = 0
  2846  0017A8  0004               	clrwdt		;# 
  2847                           
  2848                           ;picuno.c: 301: while(ms){
  2849  0017AA  D00F               	goto	l6302
  2850  0017AC                     l6294:
  2851                           
  2852                           ;picuno.c: 302: ms--;
  2853  0017AC  0640               	decf	delay@ms,f,c
  2854  0017AE  A0D8               	btfss	status,0,c
  2855  0017B0  0641               	decf	delay@ms+1,f,c
  2856                           
  2857                           ;picuno.c: 303: i=((64*16)+(64/4));
  2858  0017B2  0E04               	movlw	4
  2859  0017B4  6E43               	movwf	delay@i+1,c
  2860  0017B6  0E10               	movlw	16
  2861  0017B8  6E42               	movwf	delay@i,c
  2862                           
  2863                           ;picuno.c: 304: while(i) i--;
  2864  0017BA  D003               	goto	l6300
  2865  0017BC                     l6298:
  2866  0017BC  0642               	decf	delay@i,f,c
  2867  0017BE  A0D8               	btfss	status,0,c
  2868  0017C0  0643               	decf	delay@i+1,f,c
  2869  0017C2                     l6300:
  2870  0017C2  5043               	movf	delay@i+1,w,c
  2871  0017C4  1042               	iorwf	delay@i,w,c
  2872  0017C6  A4D8               	btfss	status,2,c
  2873  0017C8  D7F9               	goto	l6298
  2874  0017CA                     l6302:
  2875  0017CA  5041               	movf	delay@ms+1,w,c
  2876  0017CC  1040               	iorwf	delay@ms,w,c
  2877  0017CE  B4D8               	btfsc	status,2,c
  2878  0017D0  0012               	return	
  2879  0017D2  D7EC               	goto	l6294
  2880  0017D4                     __end_of_delay:
  2881                           	opt stack 0
  2882                           tblptru	equ	0xFF8
  2883                           tblptrh	equ	0xFF7
  2884                           tblptrl	equ	0xFF6
  2885                           tablat	equ	0xFF5
  2886                           prodh	equ	0xFF4
  2887                           prodl	equ	0xFF3
  2888                           postinc0	equ	0xFEE
  2889                           wreg	equ	0xFE8
  2890                           postdec1	equ	0xFE5
  2891                           fsr1l	equ	0xFE1
  2892                           postinc2	equ	0xFDE
  2893                           postdec2	equ	0xFDD
  2894                           fsr2h	equ	0xFDA
  2895                           fsr2l	equ	0xFD9
  2896                           status	equ	0xFD8
  2897                           
  2898 ;; *************** function _sprintf *****************
  2899 ;; Defined at:
  2900 ;;		line 492 in file "C:\Program Files (x86)\Microchip\xc8\v1.33\sources\common\doprnt.c"
  2901 ;; Parameters:    Size  Location     Type
  2902 ;;  sp              2   17[COMRAM] PTR unsigned char 
  2903 ;;		 -> buf(32), 
  2904 ;;  f               2   19[COMRAM] PTR const unsigned char 
  2905 ;;		 -> STR_2(17), 
  2906 ;; Auto vars:     Size  Location     Type
  2907 ;;  _val            5    0        struct .
  2908 ;;  ap              2   24[COMRAM] PTR void [1]
  2909 ;;		 -> ?_sprintf(2), 
  2910 ;;  c               1   26[COMRAM] char 
  2911 ;;  flag            1   23[COMRAM] unsigned char 
  2912 ;;  prec            1    0        char 
  2913 ;; Return value:  Size  Location     Type
  2914 ;;                  2   17[COMRAM] int 
  2915 ;; Registers used:
  2916 ;;		wreg, fsr2l, fsr2h, status,2, status,0, tblptrl, tblptrh, tblptru
  2917 ;; Tracked objects:
  2918 ;;		On entry : 0/0
  2919 ;;		On exit  : 0/0
  2920 ;;		Unchanged: 0/0
  2921 ;; Data sizes:     COMRAM   BANK0   BANK1   BANK2   BANK3   BANK4   BANK5
  2922 ;;      Params:         6       0       0       0       0       0       0
  2923 ;;      Locals:         4       0       0       0       0       0       0
  2924 ;;      Temps:          0       0       0       0       0       0       0
  2925 ;;      Totals:        10       0       0       0       0       0       0
  2926 ;;Total ram usage:       10 bytes
  2927 ;; Hardware stack levels used:    1
  2928 ;; Hardware stack levels required when called:    3
  2929 ;; This function calls:
  2930 ;;		Nothing
  2931 ;; This function is called by:
  2932 ;;		_loop
  2933 ;; This function uses a non-reentrant model
  2934 ;;
  2935                           
  2936                           	psect	text15
  2937  00151E                     __ptext15:
  2938                           	opt stack 0
  2939  00151E                     _sprintf:
  2940                           	opt stack 26
  2941                           
  2942                           ;doprnt.c: 494: va_list ap;
  2943                           ;doprnt.c: 499: signed char c;
  2944                           ;doprnt.c: 506: signed char prec;
  2945                           ;doprnt.c: 508: unsigned char flag;
  2946                           ;doprnt.c: 527: union {
  2947                           ;doprnt.c: 528: unsigned int _val;
  2948                           ;doprnt.c: 529: struct {
  2949                           ;doprnt.c: 530: const char * _cp;
  2950                           ;doprnt.c: 531: unsigned _len;
  2951                           ;doprnt.c: 532: } _str;
  2952                           ;doprnt.c: 533: } _val;
  2953                           ;doprnt.c: 542: *ap = __va_start();
  2954                           
  2955                           ;incstack = 0
  2956  00151E  0E00               	movlw	high (?_sprintf+4)
  2957  001520  6E48               	movwf	sprintf@ap+1,c
  2958  001522  0E44               	movlw	low (?_sprintf+4)
  2959  001524  6E47               	movwf	sprintf@ap,c
  2960                           
  2961                           ;doprnt.c: 545: while(c = *f++) {
  2962  001526  D02B               	goto	l6514
  2963  001528                     l6494:
  2964                           
  2965                           ;doprnt.c: 547: if(c != '%')
  2966  001528  5049               	movf	sprintf@c,w,c
  2967  00152A  0A25               	xorlw	37
  2968  00152C  A4D8               	btfss	status,2,c
  2969  00152E  D00D               	goto	l6506
  2970                           
  2971                           ;doprnt.c: 552: }
  2972                           ;doprnt.c: 557: flag = 0;
  2973                           
  2974                           ;doprnt.c: 551: continue;
  2975                           
  2976                           ;doprnt.c: 549: {
  2977                           ;doprnt.c: 550: ((*sp++ = (c)));
  2978  001530  0E00               	movlw	0
  2979  001532  6E46               	movwf	sprintf@flag,c
  2980                           
  2981                           ;doprnt.c: 644: switch(c = *f++) {
  2982  001534  D013               	goto	l6512
  2983  001536                     l6502:
  2984                           
  2985                           ;doprnt.c: 808: c = (*(int *)__va_arg((*(int **)ap), (int)0));
  2986  001536  C047  FFD9         	movff	sprintf@ap,fsr2l
  2987  00153A  C048  FFDA         	movff	sprintf@ap+1,fsr2h
  2988  00153E  50DF               	movf	indf2,w,c
  2989  001540  6E49               	movwf	sprintf@c,c
  2990  001542  0E02               	movlw	2
  2991  001544  2647               	addwf	sprintf@ap,f,c
  2992  001546  0E00               	movlw	0
  2993  001548  2248               	addwfc	sprintf@ap+1,f,c
  2994  00154A                     l6506:
  2995                           
  2996                           ;doprnt.c: 818: ((*sp++ = (c)));
  2997  00154A  C040  FFD9         	movff	sprintf@sp,fsr2l
  2998  00154E  C041  FFDA         	movff	sprintf@sp+1,fsr2h
  2999  001552  C049  FFDF         	movff	sprintf@c,indf2
  3000  001556  4A40               	infsnz	sprintf@sp,f,c
  3001  001558  2A41               	incf	sprintf@sp+1,f,c
  3002                           
  3003                           ;doprnt.c: 819: continue;
  3004  00155A  D011               	goto	l6514
  3005  00155C                     l6512:
  3006  00155C  C042  FFF6         	movff	sprintf@f,tblptrl
  3007  001560  C043  FFF7         	movff	sprintf@f+1,tblptrh
  3008  001564  4A42               	infsnz	sprintf@f,f,c
  3009  001566  2A43               	incf	sprintf@f+1,f,c
  3010  001568                     	if	0	;tblptru may be non-zero
  3011  001568                     	endif
  3012  001568                     	if	0	;tblptru may be non-zero
  3013  001568                     	endif
  3014  001568  0008               	tblrd		*
  3015  00156A  CFF5 F049          	movff	tablat,sprintf@c
  3016  00156E  5049               	movf	sprintf@c& (0+255),w,c
  3017                           
  3018                           ; Switch size 1, requested type "space"
  3019                           ; Number of cases is 2, Range of values is 0 to 99
  3020                           ; switch strategies available:
  3021                           ; Name         Instructions Cycles
  3022                           ; simple_byte            7     4 (average)
  3023                           ;	Chosen strategy is simple_byte
  3024  001570  0A00               	xorlw	0	; case 0
  3025  001572  B4D8               	btfsc	status,2,c
  3026  001574  D00F               	goto	l6516
  3027  001576  0A63               	xorlw	99	; case 99
  3028  001578  B4D8               	btfsc	status,2,c
  3029  00157A  D7DD               	goto	l6502
  3030  00157C  D7E6               	goto	l6506
  3031  00157E                     l6514:
  3032  00157E  C042  FFF6         	movff	sprintf@f,tblptrl
  3033  001582  C043  FFF7         	movff	sprintf@f+1,tblptrh
  3034  001586  4A42               	infsnz	sprintf@f,f,c
  3035  001588  2A43               	incf	sprintf@f+1,f,c
  3036  00158A                     	if	0	;tblptru may be non-zero
  3037  00158A                     	endif
  3038  00158A                     	if	0	;tblptru may be non-zero
  3039  00158A                     	endif
  3040  00158A  0008               	tblrd		*
  3041  00158C  CFF5 F049          	movff	tablat,sprintf@c
  3042  001590  6649               	tstfsz	sprintf@c& (0+255),c
  3043  001592  D7CA               	goto	l6494
  3044  001594                     l6516:
  3045                           
  3046                           ;doprnt.c: 1547: *sp = 0;
  3047  001594  C040  FFD9         	movff	sprintf@sp,fsr2l
  3048  001598  C041  FFDA         	movff	sprintf@sp+1,fsr2h
  3049  00159C  0E00               	movlw	0
  3050  00159E  6EDF               	movwf	indf2,c
  3051  0015A0  0012               	return	
  3052  0015A2                     __end_of_sprintf:
  3053                           	opt stack 0
  3054                           tblptru	equ	0xFF8
  3055                           tblptrh	equ	0xFF7
  3056                           tblptrl	equ	0xFF6
  3057                           tablat	equ	0xFF5
  3058                           prodh	equ	0xFF4
  3059                           prodl	equ	0xFF3
  3060                           postinc0	equ	0xFEE
  3061                           wreg	equ	0xFE8
  3062                           postdec1	equ	0xFE5
  3063                           fsr1l	equ	0xFE1
  3064                           indf2	equ	0xFDF
  3065                           postinc2	equ	0xFDE
  3066                           postdec2	equ	0xFDD
  3067                           fsr2h	equ	0xFDA
  3068                           fsr2l	equ	0xFD9
  3069                           status	equ	0xFD8
  3070                           
  3071 ;; *************** function _pwm_out *****************
  3072 ;; Defined at:
  3073 ;;		line 2996 in file "picuno.c"
  3074 ;; Parameters:    Size  Location     Type
  3075 ;;  ch              1    wreg     unsigned char 
  3076 ;;  dutyValue       2   17[COMRAM] unsigned int 
  3077 ;; Auto vars:     Size  Location     Type
  3078 ;;  ch              1   19[COMRAM] unsigned char 
  3079 ;; Return value:  Size  Location     Type
  3080 ;;		None               void
  3081 ;; Registers used:
  3082 ;;		wreg, status,2, status,0
  3083 ;; Tracked objects:
  3084 ;;		On entry : 0/0
  3085 ;;		On exit  : 0/0
  3086 ;;		Unchanged: 0/0
  3087 ;; Data sizes:     COMRAM   BANK0   BANK1   BANK2   BANK3   BANK4   BANK5
  3088 ;;      Params:         2       0       0       0       0       0       0
  3089 ;;      Locals:         1       0       0       0       0       0       0
  3090 ;;      Temps:          0       0       0       0       0       0       0
  3091 ;;      Totals:         3       0       0       0       0       0       0
  3092 ;;Total ram usage:        3 bytes
  3093 ;; Hardware stack levels used:    1
  3094 ;; Hardware stack levels required when called:    3
  3095 ;; This function calls:
  3096 ;;		Nothing
  3097 ;; This function is called by:
  3098 ;;		_setup
  3099 ;;		_loop
  3100 ;; This function uses a non-reentrant model
  3101 ;;
  3102                           
  3103                           	psect	text16
  3104  001740                     __ptext16:
  3105                           	opt stack 0
  3106  001740                     _pwm_out:
  3107                           	opt stack 26
  3108                           
  3109                           ;incstack = 0
  3110                           ;pwm_out@ch stored from wreg
  3111  001740  6E42               	movwf	pwm_out@ch,c
  3112                           
  3113                           ;picuno.c: 2999: if(ch == 0x01)
  3114  001742  0442               	decf	pwm_out@ch,w,c
  3115  001744  A4D8               	btfss	status,2,c
  3116  001746  D003               	goto	l6476
  3117                           
  3118                           ;picuno.c: 3000: {
  3119                           ;picuno.c: 3002: CCPR1L = (dutyValue & 0x00FF);
  3120  001748  C040  FFBE         	movff	pwm_out@dutyValue,4030	;volatile
  3121                           
  3122                           ;picuno.c: 3003: }
  3123  00174C  0012               	return	
  3124  00174E                     l6476:
  3125                           
  3126                           ;picuno.c: 3004: else if(ch == 0x02)
  3127  00174E  5042               	movf	pwm_out@ch,w,c
  3128  001750  0A02               	xorlw	2
  3129  001752  A4D8               	btfss	status,2,c
  3130  001754  D003               	goto	l6480
  3131                           
  3132                           ;picuno.c: 3005: {
  3133                           ;picuno.c: 3007: CCPR2L = (dutyValue & 0x00FF);
  3134  001756  C040  FF67         	movff	pwm_out@dutyValue,3943	;volatile
  3135                           
  3136                           ;picuno.c: 3008: }
  3137  00175A  0012               	return	
  3138  00175C                     l6480:
  3139                           
  3140                           ;picuno.c: 3009: else if(ch == 0x03)
  3141  00175C  5042               	movf	pwm_out@ch,w,c
  3142  00175E  0A03               	xorlw	3
  3143  001760  A4D8               	btfss	status,2,c
  3144  001762  D003               	goto	l6484
  3145                           
  3146                           ;picuno.c: 3010: {
  3147                           ;picuno.c: 3012: CCPR3L = (dutyValue & 0x00FF);
  3148  001764  C040  FF5E         	movff	pwm_out@dutyValue,3934	;volatile
  3149                           
  3150                           ;picuno.c: 3013: }
  3151  001768  0012               	return	
  3152  00176A                     l6484:
  3153                           
  3154                           ;picuno.c: 3014: else if(ch == 0x04)
  3155  00176A  5042               	movf	pwm_out@ch,w,c
  3156  00176C  0A04               	xorlw	4
  3157  00176E  A4D8               	btfss	status,2,c
  3158  001770  0012               	return	
  3159                           
  3160                           ;picuno.c: 3015: {
  3161                           ;picuno.c: 3017: CCPR4L = (dutyValue & 0x00FF);
  3162  001772  C040  FF58         	movff	pwm_out@dutyValue,3928	;volatile
  3163  001776  0012               	return	
  3164  001778                     __end_of_pwm_out:
  3165                           	opt stack 0
  3166                           tblptru	equ	0xFF8
  3167                           tblptrh	equ	0xFF7
  3168                           tblptrl	equ	0xFF6
  3169                           tablat	equ	0xFF5
  3170                           prodh	equ	0xFF4
  3171                           prodl	equ	0xFF3
  3172                           postinc0	equ	0xFEE
  3173                           wreg	equ	0xFE8
  3174                           postdec1	equ	0xFE5
  3175                           fsr1l	equ	0xFE1
  3176                           indf2	equ	0xFDF
  3177                           postinc2	equ	0xFDE
  3178                           postdec2	equ	0xFDD
  3179                           fsr2h	equ	0xFDA
  3180                           fsr2l	equ	0xFD9
  3181                           status	equ	0xFD8
  3182                           
  3183 ;; *************** function _enable_motor *****************
  3184 ;; Defined at:
  3185 ;;		line 121 in file "lab4_template.c"
  3186 ;; Parameters:    Size  Location     Type
  3187 ;;		None
  3188 ;; Auto vars:     Size  Location     Type
  3189 ;;		None
  3190 ;; Return value:  Size  Location     Type
  3191 ;;		None               void
  3192 ;; Registers used:
  3193 ;;		wreg, status,2, status,0, cstack
  3194 ;; Tracked objects:
  3195 ;;		On entry : 0/0
  3196 ;;		On exit  : 0/0
  3197 ;;		Unchanged: 0/0
  3198 ;; Data sizes:     COMRAM   BANK0   BANK1   BANK2   BANK3   BANK4   BANK5
  3199 ;;      Params:         0       0       0       0       0       0       0
  3200 ;;      Locals:         0       0       0       0       0       0       0
  3201 ;;      Temps:          0       0       0       0       0       0       0
  3202 ;;      Totals:         0       0       0       0       0       0       0
  3203 ;;Total ram usage:        0 bytes
  3204 ;; Hardware stack levels used:    1
  3205 ;; Hardware stack levels required when called:    5
  3206 ;; This function calls:
  3207 ;;		_pinMode
  3208 ;; This function is called by:
  3209 ;;		_loop
  3210 ;; This function uses a non-reentrant model
  3211 ;;
  3212                           
  3213                           	psect	text17
  3214  001866                     __ptext17:
  3215                           	opt stack 0
  3216  001866                     _enable_motor:
  3217                           	opt stack 24
  3218                           
  3219                           ;lab4_template.c: 122: pinMode(1,0x00);
  3220                           
  3221                           ;incstack = 0
  3222  001866  0E00               	movlw	0
  3223  001868  6E44               	movwf	pinMode@mode,c
  3224  00186A  0E01               	movlw	1
  3225  00186C  EC13  F003         	call	_pinMode
  3226                           
  3227                           ;lab4_template.c: 123: pinMode(2,0x00);
  3228  001870  0E00               	movlw	0
  3229  001872  6E44               	movwf	pinMode@mode,c
  3230  001874  0E02               	movlw	2
  3231  001876  EC13  F003         	call	_pinMode
  3232                           
  3233                           ;lab4_template.c: 124: pinMode(24,0x00);
  3234  00187A  0E00               	movlw	0
  3235  00187C  6E44               	movwf	pinMode@mode,c
  3236  00187E  0E18               	movlw	24
  3237  001880  EC13  F003         	call	_pinMode
  3238  001884  0012               	return	
  3239  001886                     __end_of_enable_motor:
  3240                           	opt stack 0
  3241                           tblptru	equ	0xFF8
  3242                           tblptrh	equ	0xFF7
  3243                           tblptrl	equ	0xFF6
  3244                           tablat	equ	0xFF5
  3245                           prodh	equ	0xFF4
  3246                           prodl	equ	0xFF3
  3247                           postinc0	equ	0xFEE
  3248                           wreg	equ	0xFE8
  3249                           postdec1	equ	0xFE5
  3250                           fsr1l	equ	0xFE1
  3251                           indf2	equ	0xFDF
  3252                           postinc2	equ	0xFDE
  3253                           postdec2	equ	0xFDD
  3254                           fsr2h	equ	0xFDA
  3255                           fsr2l	equ	0xFD9
  3256                           status	equ	0xFD8
  3257                           
  3258 ;; *************** function _pinMode *****************
  3259 ;; Defined at:
  3260 ;;		line 494 in file "picuno.c"
  3261 ;; Parameters:    Size  Location     Type
  3262 ;;  pin             1    wreg     unsigned char 
  3263 ;;  mode            1   21[COMRAM] unsigned char 
  3264 ;; Auto vars:     Size  Location     Type
  3265 ;;  pin             1   22[COMRAM] unsigned char 
  3266 ;; Return value:  Size  Location     Type
  3267 ;;		None               void
  3268 ;; Registers used:
  3269 ;;		wreg, status,2, status,0, cstack
  3270 ;; Tracked objects:
  3271 ;;		On entry : 0/0
  3272 ;;		On exit  : 0/0
  3273 ;;		Unchanged: 0/0
  3274 ;; Data sizes:     COMRAM   BANK0   BANK1   BANK2   BANK3   BANK4   BANK5
  3275 ;;      Params:         1       0       0       0       0       0       0
  3276 ;;      Locals:         1       0       0       0       0       0       0
  3277 ;;      Temps:          0       0       0       0       0       0       0
  3278 ;;      Totals:         2       0       0       0       0       0       0
  3279 ;;Total ram usage:        2 bytes
  3280 ;; Hardware stack levels used:    1
  3281 ;; Hardware stack levels required when called:    4
  3282 ;; This function calls:
  3283 ;;		_analogInput
  3284 ;; This function is called by:
  3285 ;;		_pwm_on
  3286 ;;		_setup
  3287 ;;		_disable_motor
  3288 ;;		_enable_motor
  3289 ;;		_pulseIn
  3290 ;;		_keypad_begin34
  3291 ;;		_keypad_begin44
  3292 ;;		_lcd_init4
  3293 ;;		_lcd_init8
  3294 ;;		_i2c_init
  3295 ;; This function uses a non-reentrant model
  3296 ;;
  3297                           
  3298                           	psect	text18
  3299  000626                     __ptext18:
  3300                           	opt stack 0
  3301  000626                     _pinMode:
  3302                           	opt stack 24
  3303                           
  3304                           ;incstack = 0
  3305                           ;pinMode@pin stored from wreg
  3306  000626  6E45               	movwf	pinMode@pin,c
  3307                           
  3308                           ;picuno.c: 496: switch(pin)
  3309  000628  D23A               	goto	l6268
  3310  00062A                     l469:
  3311                           
  3312                           ;picuno.c: 499: if(mode==0x00)
  3313  00062A  6644               	tstfsz	pinMode@mode,c
  3314  00062C  D003               	goto	l6028
  3315                           
  3316                           ;picuno.c: 500: {
  3317                           ;picuno.c: 501: TRISAbits.TRISA0 = 0;
  3318  00062E  9092               	bcf	3986,0,c	;volatile
  3319                           
  3320                           ;picuno.c: 502: LATAbits.LATA0 = 0;
  3321  000630  9089               	bcf	3977,0,c	;volatile
  3322                           
  3323                           ;picuno.c: 503: }
  3324  000632  0012               	return	
  3325  000634                     l6028:
  3326                           
  3327                           ;picuno.c: 504: else if(mode==0x02)
  3328  000634  5044               	movf	pinMode@mode,w,c
  3329  000636  0A02               	xorlw	2
  3330  000638  A4D8               	btfss	status,2,c
  3331  00063A  D003               	goto	l6032
  3332                           
  3333                           ;picuno.c: 505: {
  3334                           ;picuno.c: 506: TRISAbits.TRISA0 = 1;
  3335  00063C  8092               	bsf	3986,0,c	;volatile
  3336                           
  3337                           ;picuno.c: 507: LATAbits.LATA0 = 0;
  3338  00063E  9089               	bcf	3977,0,c	;volatile
  3339                           
  3340                           ;picuno.c: 508: }
  3341  000640  0012               	return	
  3342  000642                     l6032:
  3343                           
  3344                           ;picuno.c: 509: else if(mode==0x03)
  3345  000642  5044               	movf	pinMode@mode,w,c
  3346  000644  0A03               	xorlw	3
  3347  000646  A4D8               	btfss	status,2,c
  3348  000648  D005               	goto	l474
  3349                           
  3350                           ;picuno.c: 510: {
  3351                           ;picuno.c: 511: TRISAbits.TRISA0 = 1;
  3352  00064A  8092               	bsf	3986,0,c	;volatile
  3353                           
  3354                           ;picuno.c: 512: analogInput(0);
  3355  00064C  0E00               	movlw	0
  3356  00064E  EC12  F00C         	call	_analogInput
  3357                           
  3358                           ;picuno.c: 513: }
  3359  000652  0012               	return	
  3360  000654                     l474:
  3361                           
  3362                           ;picuno.c: 514: else
  3363                           ;picuno.c: 515: {
  3364                           ;picuno.c: 516: TRISAbits.TRISA0 = 1;
  3365  000654  8092               	bsf	3986,0,c	;volatile
  3366                           
  3367                           ;picuno.c: 517: LATAbits.LATA0 = 0;
  3368  000656  9089               	bcf	3977,0,c	;volatile
  3369  000658  0012               	return	
  3370  00065A                     l477:
  3371                           
  3372                           ;picuno.c: 521: if(mode==0x00)
  3373  00065A  6644               	tstfsz	pinMode@mode,c
  3374  00065C  D003               	goto	l6040
  3375                           
  3376                           ;picuno.c: 522: {
  3377                           ;picuno.c: 523: TRISAbits.TRISA1 = 0;
  3378  00065E  9292               	bcf	3986,1,c	;volatile
  3379                           
  3380                           ;picuno.c: 524: LATAbits.LATA1 = 0;
  3381  000660  9289               	bcf	3977,1,c	;volatile
  3382                           
  3383                           ;picuno.c: 525: }
  3384  000662  0012               	return	
  3385  000664                     l6040:
  3386                           
  3387                           ;picuno.c: 526: else if(mode==0x02)
  3388  000664  5044               	movf	pinMode@mode,w,c
  3389  000666  0A02               	xorlw	2
  3390  000668  A4D8               	btfss	status,2,c
  3391  00066A  D003               	goto	l6044
  3392                           
  3393                           ;picuno.c: 527: {
  3394                           ;picuno.c: 528: TRISAbits.TRISA1 = 1;
  3395  00066C  8292               	bsf	3986,1,c	;volatile
  3396                           
  3397                           ;picuno.c: 529: LATAbits.LATA1 = 0;
  3398  00066E  9289               	bcf	3977,1,c	;volatile
  3399                           
  3400                           ;picuno.c: 530: }
  3401  000670  0012               	return	
  3402  000672                     l6044:
  3403                           
  3404                           ;picuno.c: 531: else if(mode==0x03)
  3405  000672  5044               	movf	pinMode@mode,w,c
  3406  000674  0A03               	xorlw	3
  3407  000676  A4D8               	btfss	status,2,c
  3408  000678  D005               	goto	l482
  3409                           
  3410                           ;picuno.c: 532: {
  3411                           ;picuno.c: 533: TRISAbits.TRISA1 = 1;
  3412  00067A  8292               	bsf	3986,1,c	;volatile
  3413                           
  3414                           ;picuno.c: 534: analogInput(1);
  3415  00067C  0E01               	movlw	1
  3416  00067E  EC12  F00C         	call	_analogInput
  3417                           
  3418                           ;picuno.c: 535: }
  3419  000682  0012               	return	
  3420  000684                     l482:
  3421                           
  3422                           ;picuno.c: 536: else
  3423                           ;picuno.c: 537: {
  3424                           ;picuno.c: 538: TRISAbits.TRISA1 = 1;
  3425  000684  8292               	bsf	3986,1,c	;volatile
  3426                           
  3427                           ;picuno.c: 539: LATAbits.LATA1 = 0;
  3428  000686  9289               	bcf	3977,1,c	;volatile
  3429  000688  0012               	return	
  3430  00068A                     l484:
  3431                           
  3432                           ;picuno.c: 543: if(mode==0x00)
  3433  00068A  6644               	tstfsz	pinMode@mode,c
  3434  00068C  D003               	goto	l6052
  3435                           
  3436                           ;picuno.c: 544: {
  3437                           ;picuno.c: 545: TRISAbits.TRISA2 = 0;
  3438  00068E  9492               	bcf	3986,2,c	;volatile
  3439                           
  3440                           ;picuno.c: 546: LATAbits.LATA2 = 0;
  3441  000690  9489               	bcf	3977,2,c	;volatile
  3442                           
  3443                           ;picuno.c: 547: }
  3444  000692  0012               	return	
  3445  000694                     l6052:
  3446                           
  3447                           ;picuno.c: 548: else if(mode==0x02)
  3448  000694  5044               	movf	pinMode@mode,w,c
  3449  000696  0A02               	xorlw	2
  3450  000698  A4D8               	btfss	status,2,c
  3451  00069A  D003               	goto	l6056
  3452                           
  3453                           ;picuno.c: 549: {
  3454                           ;picuno.c: 550: TRISAbits.TRISA2 = 1;
  3455  00069C  8492               	bsf	3986,2,c	;volatile
  3456                           
  3457                           ;picuno.c: 551: LATAbits.LATA2 = 0;
  3458  00069E  9489               	bcf	3977,2,c	;volatile
  3459                           
  3460                           ;picuno.c: 552: }
  3461  0006A0  0012               	return	
  3462  0006A2                     l6056:
  3463                           
  3464                           ;picuno.c: 553: else if(mode==0x03)
  3465  0006A2  5044               	movf	pinMode@mode,w,c
  3466  0006A4  0A03               	xorlw	3
  3467  0006A6  A4D8               	btfss	status,2,c
  3468  0006A8  D005               	goto	l489
  3469                           
  3470                           ;picuno.c: 554: {
  3471                           ;picuno.c: 555: TRISAbits.TRISA2 = 1;
  3472  0006AA  8492               	bsf	3986,2,c	;volatile
  3473                           
  3474                           ;picuno.c: 556: analogInput(2);
  3475  0006AC  0E02               	movlw	2
  3476  0006AE  EC12  F00C         	call	_analogInput
  3477                           
  3478                           ;picuno.c: 557: }
  3479  0006B2  0012               	return	
  3480  0006B4                     l489:
  3481                           
  3482                           ;picuno.c: 558: else
  3483                           ;picuno.c: 559: {
  3484                           ;picuno.c: 560: TRISAbits.TRISA2 = 1;
  3485  0006B4  8492               	bsf	3986,2,c	;volatile
  3486                           
  3487                           ;picuno.c: 561: LATAbits.LATA2 = 0;
  3488  0006B6  9489               	bcf	3977,2,c	;volatile
  3489  0006B8  0012               	return	
  3490  0006BA                     l491:
  3491                           
  3492                           ;picuno.c: 565: if(mode==0x00)
  3493  0006BA  6644               	tstfsz	pinMode@mode,c
  3494  0006BC  D003               	goto	l6064
  3495                           
  3496                           ;picuno.c: 566: {
  3497                           ;picuno.c: 567: TRISAbits.TRISA3 = 0;
  3498  0006BE  9692               	bcf	3986,3,c	;volatile
  3499                           
  3500                           ;picuno.c: 568: LATAbits.LATA3 = 0;
  3501  0006C0  9689               	bcf	3977,3,c	;volatile
  3502                           
  3503                           ;picuno.c: 569: }
  3504  0006C2  0012               	return	
  3505  0006C4                     l6064:
  3506                           
  3507                           ;picuno.c: 570: else if(mode==0x02)
  3508  0006C4  5044               	movf	pinMode@mode,w,c
  3509  0006C6  0A02               	xorlw	2
  3510  0006C8  A4D8               	btfss	status,2,c
  3511  0006CA  D003               	goto	l6068
  3512                           
  3513                           ;picuno.c: 571: {
  3514                           ;picuno.c: 572: TRISAbits.TRISA3 = 1;
  3515  0006CC  8692               	bsf	3986,3,c	;volatile
  3516                           
  3517                           ;picuno.c: 573: LATAbits.LATA3 = 0;
  3518  0006CE  9689               	bcf	3977,3,c	;volatile
  3519                           
  3520                           ;picuno.c: 574: }
  3521  0006D0  0012               	return	
  3522  0006D2                     l6068:
  3523                           
  3524                           ;picuno.c: 575: else if(mode==0x03)
  3525  0006D2  5044               	movf	pinMode@mode,w,c
  3526  0006D4  0A03               	xorlw	3
  3527  0006D6  A4D8               	btfss	status,2,c
  3528  0006D8  D005               	goto	l496
  3529                           
  3530                           ;picuno.c: 576: {
  3531                           ;picuno.c: 577: TRISAbits.TRISA3 = 1;
  3532  0006DA  8692               	bsf	3986,3,c	;volatile
  3533                           
  3534                           ;picuno.c: 578: analogInput(3);
  3535  0006DC  0E03               	movlw	3
  3536  0006DE  EC12  F00C         	call	_analogInput
  3537                           
  3538                           ;picuno.c: 579: }
  3539  0006E2  0012               	return	
  3540  0006E4                     l496:
  3541                           
  3542                           ;picuno.c: 580: else
  3543                           ;picuno.c: 581: {
  3544                           ;picuno.c: 582: TRISAbits.TRISA3 = 1;
  3545  0006E4  8692               	bsf	3986,3,c	;volatile
  3546                           
  3547                           ;picuno.c: 583: LATAbits.LATA3 = 0;
  3548  0006E6  9689               	bcf	3977,3,c	;volatile
  3549  0006E8  0012               	return	
  3550  0006EA                     l498:
  3551                           
  3552                           ;picuno.c: 590: if(mode==0x00)
  3553  0006EA  6644               	tstfsz	pinMode@mode,c
  3554  0006EC  D003               	goto	l6076
  3555                           
  3556                           ;picuno.c: 591: {
  3557                           ;picuno.c: 592: TRISAbits.TRISA4 = 0;
  3558  0006EE  9892               	bcf	3986,4,c	;volatile
  3559                           
  3560                           ;picuno.c: 593: LATAbits.LATA4 = 0;
  3561  0006F0  9889               	bcf	3977,4,c	;volatile
  3562                           
  3563                           ;picuno.c: 594: }
  3564  0006F2  0012               	return	
  3565  0006F4                     l6076:
  3566                           
  3567                           ;picuno.c: 595: else if(mode==0x02)
  3568  0006F4  5044               	movf	pinMode@mode,w,c
  3569  0006F6  0A02               	xorlw	2
  3570  0006F8  A4D8               	btfss	status,2,c
  3571  0006FA  D003               	goto	l501
  3572                           
  3573                           ;picuno.c: 596: {
  3574                           ;picuno.c: 597: TRISAbits.TRISA4 = 1;
  3575  0006FC  8892               	bsf	3986,4,c	;volatile
  3576                           
  3577                           ;picuno.c: 598: LATAbits.LATA4 = 0;
  3578  0006FE  9889               	bcf	3977,4,c	;volatile
  3579                           
  3580                           ;picuno.c: 599: }
  3581  000700  0012               	return	
  3582  000702                     l501:
  3583                           
  3584                           ;picuno.c: 600: else
  3585                           ;picuno.c: 601: {
  3586                           ;picuno.c: 602: TRISAbits.TRISA4 = 1;
  3587  000702  8892               	bsf	3986,4,c	;volatile
  3588                           
  3589                           ;picuno.c: 603: LATAbits.LATA4 = 0;
  3590  000704  9889               	bcf	3977,4,c	;volatile
  3591  000706  0012               	return	
  3592  000708                     l503:
  3593                           
  3594                           ;picuno.c: 609: if(mode==0x00)
  3595  000708  6644               	tstfsz	pinMode@mode,c
  3596  00070A  D003               	goto	l6082
  3597                           
  3598                           ;picuno.c: 610: {
  3599                           ;picuno.c: 611: TRISAbits.TRISA5 = 0;
  3600  00070C  9A92               	bcf	3986,5,c	;volatile
  3601                           
  3602                           ;picuno.c: 612: LATAbits.LATA5 = 0;
  3603  00070E  9A89               	bcf	3977,5,c	;volatile
  3604                           
  3605                           ;picuno.c: 613: }
  3606  000710  0012               	return	
  3607  000712                     l6082:
  3608                           
  3609                           ;picuno.c: 614: else if(mode==0x02)
  3610  000712  5044               	movf	pinMode@mode,w,c
  3611  000714  0A02               	xorlw	2
  3612  000716  A4D8               	btfss	status,2,c
  3613  000718  D003               	goto	l6086
  3614                           
  3615                           ;picuno.c: 615: {
  3616                           ;picuno.c: 616: TRISAbits.TRISA5 = 1;
  3617  00071A  8A92               	bsf	3986,5,c	;volatile
  3618                           
  3619                           ;picuno.c: 617: LATAbits.LATA5 = 0;
  3620  00071C  9A89               	bcf	3977,5,c	;volatile
  3621                           
  3622                           ;picuno.c: 618: }
  3623  00071E  0012               	return	
  3624  000720                     l6086:
  3625                           
  3626                           ;picuno.c: 619: else if(mode==0x03)
  3627  000720  5044               	movf	pinMode@mode,w,c
  3628  000722  0A03               	xorlw	3
  3629  000724  A4D8               	btfss	status,2,c
  3630  000726  D005               	goto	l508
  3631                           
  3632                           ;picuno.c: 620: {
  3633                           ;picuno.c: 621: TRISAbits.TRISA5 = 1;
  3634  000728  8A92               	bsf	3986,5,c	;volatile
  3635                           
  3636                           ;picuno.c: 622: analogInput(4);
  3637  00072A  0E04               	movlw	4
  3638  00072C  EC12  F00C         	call	_analogInput
  3639                           
  3640                           ;picuno.c: 623: }
  3641  000730  0012               	return	
  3642  000732                     l508:
  3643                           
  3644                           ;picuno.c: 624: else
  3645                           ;picuno.c: 625: {
  3646                           ;picuno.c: 626: TRISAbits.TRISA5 = 1;
  3647  000732  8A92               	bsf	3986,5,c	;volatile
  3648                           
  3649                           ;picuno.c: 627: LATAbits.LATA5 = 0;
  3650  000734  9A89               	bcf	3977,5,c	;volatile
  3651  000736  0012               	return	
  3652  000738                     l510:
  3653                           
  3654                           ;picuno.c: 631: if(mode==0x00)
  3655  000738  6644               	tstfsz	pinMode@mode,c
  3656  00073A  D003               	goto	l6094
  3657                           
  3658                           ;picuno.c: 632: {
  3659                           ;picuno.c: 633: TRISAbits.TRISA6 = 0;
  3660  00073C  9C92               	bcf	3986,6,c	;volatile
  3661                           
  3662                           ;picuno.c: 634: LATAbits.LATA6 = 0;
  3663  00073E  9C89               	bcf	3977,6,c	;volatile
  3664                           
  3665                           ;picuno.c: 635: }
  3666  000740  0012               	return	
  3667  000742                     l6094:
  3668                           
  3669                           ;picuno.c: 636: else if(mode==0x02)
  3670  000742  5044               	movf	pinMode@mode,w,c
  3671  000744  0A02               	xorlw	2
  3672  000746  A4D8               	btfss	status,2,c
  3673  000748  D003               	goto	l513
  3674                           
  3675                           ;picuno.c: 637: {
  3676                           ;picuno.c: 638: TRISAbits.TRISA6 = 1;
  3677  00074A  8C92               	bsf	3986,6,c	;volatile
  3678                           
  3679                           ;picuno.c: 639: LATAbits.LATA6 = 0;
  3680  00074C  9C89               	bcf	3977,6,c	;volatile
  3681                           
  3682                           ;picuno.c: 640: }
  3683  00074E  0012               	return	
  3684  000750                     l513:
  3685                           
  3686                           ;picuno.c: 641: else
  3687                           ;picuno.c: 642: {
  3688                           ;picuno.c: 643: TRISAbits.TRISA6 = 1;
  3689  000750  8C92               	bsf	3986,6,c	;volatile
  3690                           
  3691                           ;picuno.c: 644: LATAbits.LATA6 = 0;
  3692  000752  9C89               	bcf	3977,6,c	;volatile
  3693  000754  0012               	return	
  3694  000756                     l515:
  3695                           
  3696                           ;picuno.c: 650: if(mode==0x00)
  3697  000756  6644               	tstfsz	pinMode@mode,c
  3698  000758  D003               	goto	l6100
  3699                           
  3700                           ;picuno.c: 651: {
  3701                           ;picuno.c: 652: TRISAbits.TRISA7 = 0;
  3702  00075A  9E92               	bcf	3986,7,c	;volatile
  3703                           
  3704                           ;picuno.c: 653: LATAbits.LATA7 = 0;
  3705  00075C  9E89               	bcf	3977,7,c	;volatile
  3706                           
  3707                           ;picuno.c: 654: }
  3708  00075E  0012               	return	
  3709  000760                     l6100:
  3710                           
  3711                           ;picuno.c: 655: else if(mode==0x02)
  3712  000760  5044               	movf	pinMode@mode,w,c
  3713  000762  0A02               	xorlw	2
  3714  000764  A4D8               	btfss	status,2,c
  3715  000766  D003               	goto	l518
  3716                           
  3717                           ;picuno.c: 656: {
  3718                           ;picuno.c: 657: TRISAbits.TRISA7 = 1;
  3719  000768  8E92               	bsf	3986,7,c	;volatile
  3720                           
  3721                           ;picuno.c: 658: LATAbits.LATA7 = 0;
  3722  00076A  9E89               	bcf	3977,7,c	;volatile
  3723                           
  3724                           ;picuno.c: 659: }
  3725  00076C  0012               	return	
  3726  00076E                     l518:
  3727                           
  3728                           ;picuno.c: 660: else
  3729                           ;picuno.c: 661: {
  3730                           ;picuno.c: 662: TRISAbits.TRISA7 = 1;
  3731  00076E  8E92               	bsf	3986,7,c	;volatile
  3732                           
  3733                           ;picuno.c: 663: LATAbits.LATA7 = 0;
  3734  000770  9E89               	bcf	3977,7,c	;volatile
  3735  000772  0012               	return	
  3736  000774                     l520:
  3737                           
  3738                           ;picuno.c: 668: if(mode==0x00)
  3739  000774  6644               	tstfsz	pinMode@mode,c
  3740  000776  D003               	goto	l6106
  3741                           
  3742                           ;picuno.c: 669: {
  3743                           ;picuno.c: 670: TRISBbits.TRISB0 = 0;
  3744  000778  9093               	bcf	3987,0,c	;volatile
  3745                           
  3746                           ;picuno.c: 671: LATBbits.LATB0 = 0;
  3747  00077A  908A               	bcf	3978,0,c	;volatile
  3748                           
  3749                           ;picuno.c: 672: }
  3750  00077C  0012               	return	
  3751  00077E                     l6106:
  3752                           
  3753                           ;picuno.c: 673: else if(mode==0x02)
  3754  00077E  5044               	movf	pinMode@mode,w,c
  3755  000780  0A02               	xorlw	2
  3756  000782  A4D8               	btfss	status,2,c
  3757  000784  D003               	goto	l523
  3758                           
  3759                           ;picuno.c: 674: {
  3760                           ;picuno.c: 675: TRISBbits.TRISB0 = 1;
  3761  000786  8093               	bsf	3987,0,c	;volatile
  3762                           
  3763                           ;picuno.c: 676: LATBbits.LATB0 = 0;
  3764  000788  908A               	bcf	3978,0,c	;volatile
  3765                           
  3766                           ;picuno.c: 677: }
  3767  00078A  0012               	return	
  3768  00078C                     l523:
  3769                           
  3770                           ;picuno.c: 678: else
  3771                           ;picuno.c: 679: {
  3772                           ;picuno.c: 680: TRISBbits.TRISB0 = 1;
  3773  00078C  8093               	bsf	3987,0,c	;volatile
  3774                           
  3775                           ;picuno.c: 681: LATBbits.LATB0 = 0;
  3776  00078E  908A               	bcf	3978,0,c	;volatile
  3777  000790  0012               	return	
  3778  000792                     l525:
  3779                           
  3780                           ;picuno.c: 685: if(mode==0x00)
  3781  000792  6644               	tstfsz	pinMode@mode,c
  3782  000794  D003               	goto	l6112
  3783                           
  3784                           ;picuno.c: 686: {
  3785                           ;picuno.c: 687: TRISBbits.TRISB1 = 0;
  3786  000796  9293               	bcf	3987,1,c	;volatile
  3787                           
  3788                           ;picuno.c: 688: LATBbits.LATB1 = 0;
  3789  000798  928A               	bcf	3978,1,c	;volatile
  3790                           
  3791                           ;picuno.c: 689: }
  3792  00079A  0012               	return	
  3793  00079C                     l6112:
  3794                           
  3795                           ;picuno.c: 690: else if(mode==0x02)
  3796  00079C  5044               	movf	pinMode@mode,w,c
  3797  00079E  0A02               	xorlw	2
  3798  0007A0  A4D8               	btfss	status,2,c
  3799  0007A2  D003               	goto	l528
  3800                           
  3801                           ;picuno.c: 691: {
  3802                           ;picuno.c: 692: TRISBbits.TRISB1 = 1;
  3803  0007A4  8293               	bsf	3987,1,c	;volatile
  3804                           
  3805                           ;picuno.c: 693: LATBbits.LATB1 = 0;
  3806  0007A6  928A               	bcf	3978,1,c	;volatile
  3807                           
  3808                           ;picuno.c: 694: }
  3809  0007A8  0012               	return	
  3810  0007AA                     l528:
  3811                           
  3812                           ;picuno.c: 695: else
  3813                           ;picuno.c: 696: {
  3814                           ;picuno.c: 697: TRISBbits.TRISB1 = 1;
  3815  0007AA  8293               	bsf	3987,1,c	;volatile
  3816                           
  3817                           ;picuno.c: 698: LATBbits.LATB1 = 0;
  3818  0007AC  928A               	bcf	3978,1,c	;volatile
  3819  0007AE  0012               	return	
  3820  0007B0                     l530:
  3821                           
  3822                           ;picuno.c: 702: if(mode==0x00)
  3823  0007B0  6644               	tstfsz	pinMode@mode,c
  3824  0007B2  D003               	goto	l6118
  3825                           
  3826                           ;picuno.c: 703: {
  3827                           ;picuno.c: 704: TRISBbits.TRISB2 = 0;
  3828  0007B4  9493               	bcf	3987,2,c	;volatile
  3829                           
  3830                           ;picuno.c: 705: LATBbits.LATB2 = 0;
  3831  0007B6  948A               	bcf	3978,2,c	;volatile
  3832                           
  3833                           ;picuno.c: 706: }
  3834  0007B8  0012               	return	
  3835  0007BA                     l6118:
  3836                           
  3837                           ;picuno.c: 707: else if(mode==0x02)
  3838  0007BA  5044               	movf	pinMode@mode,w,c
  3839  0007BC  0A02               	xorlw	2
  3840  0007BE  A4D8               	btfss	status,2,c
  3841  0007C0  D003               	goto	l533
  3842                           
  3843                           ;picuno.c: 708: {
  3844                           ;picuno.c: 709: TRISBbits.TRISB2 = 1;
  3845  0007C2  8493               	bsf	3987,2,c	;volatile
  3846                           
  3847                           ;picuno.c: 710: LATBbits.LATB2 = 0;
  3848  0007C4  948A               	bcf	3978,2,c	;volatile
  3849                           
  3850                           ;picuno.c: 711: }
  3851  0007C6  0012               	return	
  3852  0007C8                     l533:
  3853                           
  3854                           ;picuno.c: 712: else
  3855                           ;picuno.c: 713: {
  3856                           ;picuno.c: 714: TRISBbits.TRISB2 = 1;
  3857  0007C8  8493               	bsf	3987,2,c	;volatile
  3858                           
  3859                           ;picuno.c: 715: LATBbits.LATB2 = 0;
  3860  0007CA  948A               	bcf	3978,2,c	;volatile
  3861  0007CC  0012               	return	
  3862  0007CE                     l535:
  3863                           
  3864                           ;picuno.c: 719: if(mode==0x00)
  3865  0007CE  6644               	tstfsz	pinMode@mode,c
  3866  0007D0  D003               	goto	l6124
  3867                           
  3868                           ;picuno.c: 720: {
  3869                           ;picuno.c: 721: TRISBbits.TRISB3 = 0;
  3870  0007D2  9693               	bcf	3987,3,c	;volatile
  3871                           
  3872                           ;picuno.c: 722: LATBbits.LATB3 = 0;
  3873  0007D4  968A               	bcf	3978,3,c	;volatile
  3874                           
  3875                           ;picuno.c: 723: }
  3876  0007D6  0012               	return	
  3877  0007D8                     l6124:
  3878                           
  3879                           ;picuno.c: 724: else if(mode==0x02)
  3880  0007D8  5044               	movf	pinMode@mode,w,c
  3881  0007DA  0A02               	xorlw	2
  3882  0007DC  A4D8               	btfss	status,2,c
  3883  0007DE  D003               	goto	l538
  3884                           
  3885                           ;picuno.c: 725: {
  3886                           ;picuno.c: 726: TRISBbits.TRISB3 = 1;
  3887  0007E0  8693               	bsf	3987,3,c	;volatile
  3888                           
  3889                           ;picuno.c: 727: LATBbits.LATB3 = 0;
  3890  0007E2  968A               	bcf	3978,3,c	;volatile
  3891                           
  3892                           ;picuno.c: 728: }
  3893  0007E4  0012               	return	
  3894  0007E6                     l538:
  3895                           
  3896                           ;picuno.c: 729: else
  3897                           ;picuno.c: 730: {
  3898                           ;picuno.c: 731: TRISBbits.TRISB3 = 1;
  3899  0007E6  8693               	bsf	3987,3,c	;volatile
  3900                           
  3901                           ;picuno.c: 732: LATBbits.LATB3 = 0;
  3902  0007E8  968A               	bcf	3978,3,c	;volatile
  3903  0007EA  0012               	return	
  3904  0007EC                     l540:
  3905                           
  3906                           ;picuno.c: 736: if(mode==0x00)
  3907  0007EC  6644               	tstfsz	pinMode@mode,c
  3908  0007EE  D003               	goto	l6130
  3909                           
  3910                           ;picuno.c: 737: {
  3911                           ;picuno.c: 738: TRISBbits.TRISB4 = 0;
  3912  0007F0  9893               	bcf	3987,4,c	;volatile
  3913                           
  3914                           ;picuno.c: 739: LATBbits.LATB4 = 0;
  3915  0007F2  988A               	bcf	3978,4,c	;volatile
  3916                           
  3917                           ;picuno.c: 740: }
  3918  0007F4  0012               	return	
  3919  0007F6                     l6130:
  3920                           
  3921                           ;picuno.c: 741: else if(mode==0x02)
  3922  0007F6  5044               	movf	pinMode@mode,w,c
  3923  0007F8  0A02               	xorlw	2
  3924  0007FA  A4D8               	btfss	status,2,c
  3925  0007FC  D003               	goto	l543
  3926                           
  3927                           ;picuno.c: 742: {
  3928                           ;picuno.c: 743: TRISBbits.TRISB4 = 1;
  3929  0007FE  8893               	bsf	3987,4,c	;volatile
  3930                           
  3931                           ;picuno.c: 744: LATBbits.LATB4 = 0;
  3932  000800  988A               	bcf	3978,4,c	;volatile
  3933                           
  3934                           ;picuno.c: 745: }
  3935  000802  0012               	return	
  3936  000804                     l543:
  3937                           
  3938                           ;picuno.c: 746: else
  3939                           ;picuno.c: 747: {
  3940                           ;picuno.c: 748: TRISBbits.TRISB4 = 1;
  3941  000804  8893               	bsf	3987,4,c	;volatile
  3942                           
  3943                           ;picuno.c: 749: LATBbits.LATB4 = 0;
  3944  000806  988A               	bcf	3978,4,c	;volatile
  3945  000808  0012               	return	
  3946  00080A                     l545:
  3947                           
  3948                           ;picuno.c: 753: if(mode==0x00)
  3949  00080A  6644               	tstfsz	pinMode@mode,c
  3950  00080C  D003               	goto	l6136
  3951                           
  3952                           ;picuno.c: 754: {
  3953                           ;picuno.c: 755: TRISBbits.TRISB5 = 0;
  3954  00080E  9A93               	bcf	3987,5,c	;volatile
  3955                           
  3956                           ;picuno.c: 756: LATBbits.LATB5 = 0;
  3957  000810  9A8A               	bcf	3978,5,c	;volatile
  3958                           
  3959                           ;picuno.c: 757: }
  3960  000812  0012               	return	
  3961  000814                     l6136:
  3962                           
  3963                           ;picuno.c: 758: else if(mode==0x02)
  3964  000814  5044               	movf	pinMode@mode,w,c
  3965  000816  0A02               	xorlw	2
  3966  000818  A4D8               	btfss	status,2,c
  3967  00081A  D003               	goto	l548
  3968                           
  3969                           ;picuno.c: 759: {
  3970                           ;picuno.c: 760: TRISBbits.TRISB5 = 1;
  3971  00081C  8A93               	bsf	3987,5,c	;volatile
  3972                           
  3973                           ;picuno.c: 761: LATBbits.LATB5 = 0;
  3974  00081E  9A8A               	bcf	3978,5,c	;volatile
  3975                           
  3976                           ;picuno.c: 762: }
  3977  000820  0012               	return	
  3978  000822                     l548:
  3979                           
  3980                           ;picuno.c: 763: else
  3981                           ;picuno.c: 764: {
  3982                           ;picuno.c: 765: TRISBbits.TRISB5 = 1;
  3983  000822  8A93               	bsf	3987,5,c	;volatile
  3984                           
  3985                           ;picuno.c: 766: LATBbits.LATB5 = 0;
  3986  000824  9A8A               	bcf	3978,5,c	;volatile
  3987  000826  0012               	return	
  3988  000828                     l550:
  3989                           
  3990                           ;picuno.c: 770: if(mode==0x00)
  3991  000828  6644               	tstfsz	pinMode@mode,c
  3992  00082A  D003               	goto	l6142
  3993                           
  3994                           ;picuno.c: 771: {
  3995                           ;picuno.c: 772: TRISBbits.TRISB6 = 0;
  3996  00082C  9C93               	bcf	3987,6,c	;volatile
  3997                           
  3998                           ;picuno.c: 773: LATBbits.LATB6 = 0;
  3999  00082E  9C8A               	bcf	3978,6,c	;volatile
  4000                           
  4001                           ;picuno.c: 774: }
  4002  000830  0012               	return	
  4003  000832                     l6142:
  4004                           
  4005                           ;picuno.c: 775: else if(mode==0x02)
  4006  000832  5044               	movf	pinMode@mode,w,c
  4007  000834  0A02               	xorlw	2
  4008  000836  A4D8               	btfss	status,2,c
  4009  000838  D003               	goto	l553
  4010                           
  4011                           ;picuno.c: 776: {
  4012                           ;picuno.c: 777: TRISBbits.TRISB6 = 1;
  4013  00083A  8C93               	bsf	3987,6,c	;volatile
  4014                           
  4015                           ;picuno.c: 778: LATBbits.LATB6 = 0;
  4016  00083C  9C8A               	bcf	3978,6,c	;volatile
  4017                           
  4018                           ;picuno.c: 779: }
  4019  00083E  0012               	return	
  4020  000840                     l553:
  4021                           
  4022                           ;picuno.c: 780: else
  4023                           ;picuno.c: 781: {
  4024                           ;picuno.c: 782: TRISBbits.TRISB6 = 1;
  4025  000840  8C93               	bsf	3987,6,c	;volatile
  4026                           
  4027                           ;picuno.c: 783: LATBbits.LATB6 = 0;
  4028  000842  9C8A               	bcf	3978,6,c	;volatile
  4029  000844  0012               	return	
  4030  000846                     l555:
  4031                           
  4032                           ;picuno.c: 787: if(mode==0x00)
  4033  000846  6644               	tstfsz	pinMode@mode,c
  4034  000848  D003               	goto	l6148
  4035                           
  4036                           ;picuno.c: 788: {
  4037                           ;picuno.c: 789: TRISBbits.TRISB7 = 0;
  4038  00084A  9E93               	bcf	3987,7,c	;volatile
  4039                           
  4040                           ;picuno.c: 790: LATBbits.LATB7 = 0;
  4041  00084C  9E8A               	bcf	3978,7,c	;volatile
  4042                           
  4043                           ;picuno.c: 791: }
  4044  00084E  0012               	return	
  4045  000850                     l6148:
  4046                           
  4047                           ;picuno.c: 792: else if(mode==0x02)
  4048  000850  5044               	movf	pinMode@mode,w,c
  4049  000852  0A02               	xorlw	2
  4050  000854  A4D8               	btfss	status,2,c
  4051  000856  D003               	goto	l558
  4052                           
  4053                           ;picuno.c: 793: {
  4054                           ;picuno.c: 794: TRISBbits.TRISB7 = 1;
  4055  000858  8E93               	bsf	3987,7,c	;volatile
  4056                           
  4057                           ;picuno.c: 795: LATBbits.LATB7 = 0;
  4058  00085A  9E8A               	bcf	3978,7,c	;volatile
  4059                           
  4060                           ;picuno.c: 796: }
  4061  00085C  0012               	return	
  4062  00085E                     l558:
  4063                           
  4064                           ;picuno.c: 797: else
  4065                           ;picuno.c: 798: {
  4066                           ;picuno.c: 799: TRISBbits.TRISB7 = 1;
  4067  00085E  8E93               	bsf	3987,7,c	;volatile
  4068                           
  4069                           ;picuno.c: 800: LATBbits.LATB7 = 0;
  4070  000860  9E8A               	bcf	3978,7,c	;volatile
  4071  000862  0012               	return	
  4072  000864                     l560:
  4073                           
  4074                           ;picuno.c: 804: if(mode==0x00)
  4075  000864  6644               	tstfsz	pinMode@mode,c
  4076  000866  D003               	goto	l6154
  4077                           
  4078                           ;picuno.c: 805: {
  4079                           ;picuno.c: 806: TRISCbits.TRISC0 = 0;
  4080  000868  9094               	bcf	3988,0,c	;volatile
  4081                           
  4082                           ;picuno.c: 807: LATCbits.LATC0 = 0;
  4083  00086A  908B               	bcf	3979,0,c	;volatile
  4084                           
  4085                           ;picuno.c: 808: }
  4086  00086C  0012               	return	
  4087  00086E                     l6154:
  4088                           
  4089                           ;picuno.c: 809: else if(mode==0x02)
  4090  00086E  5044               	movf	pinMode@mode,w,c
  4091  000870  0A02               	xorlw	2
  4092  000872  A4D8               	btfss	status,2,c
  4093  000874  D003               	goto	l563
  4094                           
  4095                           ;picuno.c: 810: {
  4096                           ;picuno.c: 811: TRISCbits.TRISC0 = 1;
  4097  000876  8094               	bsf	3988,0,c	;volatile
  4098                           
  4099                           ;picuno.c: 812: LATCbits.LATC0 = 0;
  4100  000878  908B               	bcf	3979,0,c	;volatile
  4101                           
  4102                           ;picuno.c: 813: }
  4103  00087A  0012               	return	
  4104  00087C                     l563:
  4105                           
  4106                           ;picuno.c: 814: else
  4107                           ;picuno.c: 815: {
  4108                           ;picuno.c: 816: TRISCbits.TRISC0 = 1;
  4109  00087C  8094               	bsf	3988,0,c	;volatile
  4110                           
  4111                           ;picuno.c: 817: LATCbits.LATC0 = 0;
  4112  00087E  908B               	bcf	3979,0,c	;volatile
  4113  000880  0012               	return	
  4114  000882                     l565:
  4115                           
  4116                           ;picuno.c: 821: if(mode==0x00)
  4117  000882  6644               	tstfsz	pinMode@mode,c
  4118  000884  D003               	goto	l6160
  4119                           
  4120                           ;picuno.c: 822: {
  4121                           ;picuno.c: 823: TRISCbits.TRISC1 = 0;
  4122  000886  9294               	bcf	3988,1,c	;volatile
  4123                           
  4124                           ;picuno.c: 824: LATCbits.LATC1 = 0;
  4125  000888  928B               	bcf	3979,1,c	;volatile
  4126                           
  4127                           ;picuno.c: 825: }
  4128  00088A  0012               	return	
  4129  00088C                     l6160:
  4130                           
  4131                           ;picuno.c: 826: else if(mode==0x02)
  4132  00088C  5044               	movf	pinMode@mode,w,c
  4133  00088E  0A02               	xorlw	2
  4134  000890  A4D8               	btfss	status,2,c
  4135  000892  D003               	goto	l568
  4136                           
  4137                           ;picuno.c: 827: {
  4138                           ;picuno.c: 828: TRISCbits.TRISC1 = 1;
  4139  000894  8294               	bsf	3988,1,c	;volatile
  4140                           
  4141                           ;picuno.c: 829: LATCbits.LATC1 = 0;
  4142  000896  928B               	bcf	3979,1,c	;volatile
  4143                           
  4144                           ;picuno.c: 830: }
  4145  000898  0012               	return	
  4146  00089A                     l568:
  4147                           
  4148                           ;picuno.c: 831: else
  4149                           ;picuno.c: 832: {
  4150                           ;picuno.c: 833: TRISCbits.TRISC1 = 1;
  4151  00089A  8294               	bsf	3988,1,c	;volatile
  4152                           
  4153                           ;picuno.c: 834: LATCbits.LATC1 = 0;
  4154  00089C  928B               	bcf	3979,1,c	;volatile
  4155  00089E  0012               	return	
  4156  0008A0                     l570:
  4157                           
  4158                           ;picuno.c: 838: if(mode==0x00)
  4159  0008A0  6644               	tstfsz	pinMode@mode,c
  4160  0008A2  D003               	goto	l6166
  4161                           
  4162                           ;picuno.c: 839: {
  4163                           ;picuno.c: 840: TRISCbits.TRISC2 = 0;
  4164  0008A4  9494               	bcf	3988,2,c	;volatile
  4165                           
  4166                           ;picuno.c: 841: LATCbits.LATC2 = 0;
  4167  0008A6  948B               	bcf	3979,2,c	;volatile
  4168                           
  4169                           ;picuno.c: 842: }
  4170  0008A8  0012               	return	
  4171  0008AA                     l6166:
  4172                           
  4173                           ;picuno.c: 843: else if(mode==0x02)
  4174  0008AA  5044               	movf	pinMode@mode,w,c
  4175  0008AC  0A02               	xorlw	2
  4176  0008AE  A4D8               	btfss	status,2,c
  4177  0008B0  D003               	goto	l573
  4178                           
  4179                           ;picuno.c: 844: {
  4180                           ;picuno.c: 845: TRISCbits.TRISC2 = 1;
  4181  0008B2  8494               	bsf	3988,2,c	;volatile
  4182                           
  4183                           ;picuno.c: 846: LATCbits.LATC2 = 0;
  4184  0008B4  948B               	bcf	3979,2,c	;volatile
  4185                           
  4186                           ;picuno.c: 847: }
  4187  0008B6  0012               	return	
  4188  0008B8                     l573:
  4189                           
  4190                           ;picuno.c: 848: else
  4191                           ;picuno.c: 849: {
  4192                           ;picuno.c: 850: TRISCbits.TRISC2 = 1;
  4193  0008B8  8494               	bsf	3988,2,c	;volatile
  4194                           
  4195                           ;picuno.c: 851: LATCbits.LATC2 = 0;
  4196  0008BA  948B               	bcf	3979,2,c	;volatile
  4197  0008BC  0012               	return	
  4198  0008BE                     l575:
  4199                           
  4200                           ;picuno.c: 858: if(mode==0x00)
  4201  0008BE  6644               	tstfsz	pinMode@mode,c
  4202  0008C0  D003               	goto	l6172
  4203                           
  4204                           ;picuno.c: 859: {
  4205                           ;picuno.c: 860: TRISCbits.TRISC3 = 0;
  4206  0008C2  9694               	bcf	3988,3,c	;volatile
  4207                           
  4208                           ;picuno.c: 861: LATCbits.LATC3 = 0;
  4209  0008C4  968B               	bcf	3979,3,c	;volatile
  4210                           
  4211                           ;picuno.c: 862: }
  4212  0008C6  0012               	return	
  4213  0008C8                     l6172:
  4214                           
  4215                           ;picuno.c: 863: else if(mode==0x02)
  4216  0008C8  5044               	movf	pinMode@mode,w,c
  4217  0008CA  0A02               	xorlw	2
  4218  0008CC  A4D8               	btfss	status,2,c
  4219  0008CE  D003               	goto	l578
  4220                           
  4221                           ;picuno.c: 864: {
  4222                           ;picuno.c: 865: TRISCbits.TRISC3 = 1;
  4223  0008D0  8694               	bsf	3988,3,c	;volatile
  4224                           
  4225                           ;picuno.c: 866: LATCbits.LATC3 = 0;
  4226  0008D2  968B               	bcf	3979,3,c	;volatile
  4227                           
  4228                           ;picuno.c: 867: }
  4229  0008D4  0012               	return	
  4230  0008D6                     l578:
  4231                           
  4232                           ;picuno.c: 868: else
  4233                           ;picuno.c: 869: {
  4234                           ;picuno.c: 870: TRISCbits.TRISC3 = 1;
  4235  0008D6  8694               	bsf	3988,3,c	;volatile
  4236                           
  4237                           ;picuno.c: 871: LATCbits.LATC3 = 0;
  4238  0008D8  968B               	bcf	3979,3,c	;volatile
  4239  0008DA  0012               	return	
  4240  0008DC                     l580:
  4241                           
  4242                           ;picuno.c: 875: if(mode==0x00)
  4243  0008DC  6644               	tstfsz	pinMode@mode,c
  4244  0008DE  D003               	goto	l6178
  4245                           
  4246                           ;picuno.c: 876: {
  4247                           ;picuno.c: 877: TRISCbits.TRISC4 = 0;
  4248  0008E0  9894               	bcf	3988,4,c	;volatile
  4249                           
  4250                           ;picuno.c: 878: LATCbits.LATC4 = 0;
  4251  0008E2  988B               	bcf	3979,4,c	;volatile
  4252                           
  4253                           ;picuno.c: 879: }
  4254  0008E4  0012               	return	
  4255  0008E6                     l6178:
  4256                           
  4257                           ;picuno.c: 880: else if(mode==0x02)
  4258  0008E6  5044               	movf	pinMode@mode,w,c
  4259  0008E8  0A02               	xorlw	2
  4260  0008EA  A4D8               	btfss	status,2,c
  4261  0008EC  D003               	goto	l583
  4262                           
  4263                           ;picuno.c: 881: {
  4264                           ;picuno.c: 882: TRISCbits.TRISC4 = 1;
  4265  0008EE  8894               	bsf	3988,4,c	;volatile
  4266                           
  4267                           ;picuno.c: 883: LATCbits.LATC4 = 0;
  4268  0008F0  988B               	bcf	3979,4,c	;volatile
  4269                           
  4270                           ;picuno.c: 884: }
  4271  0008F2  0012               	return	
  4272  0008F4                     l583:
  4273                           
  4274                           ;picuno.c: 885: else
  4275                           ;picuno.c: 886: {
  4276                           ;picuno.c: 887: TRISCbits.TRISC4 = 1;
  4277  0008F4  8894               	bsf	3988,4,c	;volatile
  4278                           
  4279                           ;picuno.c: 888: LATCbits.LATC4 = 0;
  4280  0008F6  988B               	bcf	3979,4,c	;volatile
  4281  0008F8  0012               	return	
  4282  0008FA                     l585:
  4283                           
  4284                           ;picuno.c: 892: if(mode==0x00)
  4285  0008FA  6644               	tstfsz	pinMode@mode,c
  4286  0008FC  D003               	goto	l6184
  4287                           
  4288                           ;picuno.c: 893: {
  4289                           ;picuno.c: 894: TRISCbits.TRISC5 = 0;
  4290  0008FE  9A94               	bcf	3988,5,c	;volatile
  4291                           
  4292                           ;picuno.c: 895: LATCbits.LATC5 = 0;
  4293  000900  9A8B               	bcf	3979,5,c	;volatile
  4294                           
  4295                           ;picuno.c: 896: }
  4296  000902  0012               	return	
  4297  000904                     l6184:
  4298                           
  4299                           ;picuno.c: 897: else if(mode==0x02)
  4300  000904  5044               	movf	pinMode@mode,w,c
  4301  000906  0A02               	xorlw	2
  4302  000908  A4D8               	btfss	status,2,c
  4303  00090A  D003               	goto	l588
  4304                           
  4305                           ;picuno.c: 898: {
  4306                           ;picuno.c: 899: TRISCbits.TRISC5 = 1;
  4307  00090C  8A94               	bsf	3988,5,c	;volatile
  4308                           
  4309                           ;picuno.c: 900: LATCbits.LATC5 = 0;
  4310  00090E  9A8B               	bcf	3979,5,c	;volatile
  4311                           
  4312                           ;picuno.c: 901: }
  4313  000910  0012               	return	
  4314  000912                     l588:
  4315                           
  4316                           ;picuno.c: 902: else
  4317                           ;picuno.c: 903: {
  4318                           ;picuno.c: 904: TRISCbits.TRISC5 = 1;
  4319  000912  8A94               	bsf	3988,5,c	;volatile
  4320                           
  4321                           ;picuno.c: 905: LATCbits.LATC5 = 0;
  4322  000914  9A8B               	bcf	3979,5,c	;volatile
  4323  000916  0012               	return	
  4324  000918                     l590:
  4325                           
  4326                           ;picuno.c: 911: if(mode==0x00)
  4327  000918  6644               	tstfsz	pinMode@mode,c
  4328  00091A  D003               	goto	l6190
  4329                           
  4330                           ;picuno.c: 912: {
  4331                           ;picuno.c: 913: TRISCbits.TRISC6 = 0;
  4332  00091C  9C94               	bcf	3988,6,c	;volatile
  4333                           
  4334                           ;picuno.c: 914: LATCbits.LATC6 = 0;
  4335  00091E  9C8B               	bcf	3979,6,c	;volatile
  4336                           
  4337                           ;picuno.c: 915: }
  4338  000920  0012               	return	
  4339  000922                     l6190:
  4340                           
  4341                           ;picuno.c: 916: else if(mode==0x02)
  4342  000922  5044               	movf	pinMode@mode,w,c
  4343  000924  0A02               	xorlw	2
  4344  000926  A4D8               	btfss	status,2,c
  4345  000928  D003               	goto	l593
  4346                           
  4347                           ;picuno.c: 917: {
  4348                           ;picuno.c: 918: TRISCbits.TRISC6 = 1;
  4349  00092A  8C94               	bsf	3988,6,c	;volatile
  4350                           
  4351                           ;picuno.c: 919: LATCbits.LATC6 = 0;
  4352  00092C  9C8B               	bcf	3979,6,c	;volatile
  4353                           
  4354                           ;picuno.c: 920: }
  4355  00092E  0012               	return	
  4356  000930                     l593:
  4357                           
  4358                           ;picuno.c: 921: else
  4359                           ;picuno.c: 922: {
  4360                           ;picuno.c: 923: TRISCbits.TRISC6 = 1;
  4361  000930  8C94               	bsf	3988,6,c	;volatile
  4362                           
  4363                           ;picuno.c: 924: LATCbits.LATC6 = 0;
  4364  000932  9C8B               	bcf	3979,6,c	;volatile
  4365  000934  0012               	return	
  4366  000936                     l595:
  4367                           
  4368                           ;picuno.c: 928: if(mode==0x00)
  4369  000936  6644               	tstfsz	pinMode@mode,c
  4370  000938  D003               	goto	l6196
  4371                           
  4372                           ;picuno.c: 929: {
  4373                           ;picuno.c: 930: TRISCbits.TRISC7 = 0;
  4374  00093A  9E94               	bcf	3988,7,c	;volatile
  4375                           
  4376                           ;picuno.c: 931: LATCbits.LATC7 = 0;
  4377  00093C  9E8B               	bcf	3979,7,c	;volatile
  4378                           
  4379                           ;picuno.c: 932: }
  4380  00093E  0012               	return	
  4381  000940                     l6196:
  4382                           
  4383                           ;picuno.c: 933: else if(mode==0x02)
  4384  000940  5044               	movf	pinMode@mode,w,c
  4385  000942  0A02               	xorlw	2
  4386  000944  A4D8               	btfss	status,2,c
  4387  000946  D003               	goto	l598
  4388                           
  4389                           ;picuno.c: 934: {
  4390                           ;picuno.c: 935: TRISCbits.TRISC7 = 1;
  4391  000948  8E94               	bsf	3988,7,c	;volatile
  4392                           
  4393                           ;picuno.c: 936: LATCbits.LATC7 = 0;
  4394  00094A  9E8B               	bcf	3979,7,c	;volatile
  4395                           
  4396                           ;picuno.c: 937: }
  4397  00094C  0012               	return	
  4398  00094E                     l598:
  4399                           
  4400                           ;picuno.c: 938: else
  4401                           ;picuno.c: 939: {
  4402                           ;picuno.c: 940: TRISCbits.TRISC7 = 1;
  4403  00094E  8E94               	bsf	3988,7,c	;volatile
  4404                           
  4405                           ;picuno.c: 941: LATCbits.LATC7 = 0;
  4406  000950  9E8B               	bcf	3979,7,c	;volatile
  4407  000952  0012               	return	
  4408  000954                     l600:
  4409                           
  4410                           ;picuno.c: 945: if(mode==0x00)
  4411  000954  6644               	tstfsz	pinMode@mode,c
  4412  000956  D003               	goto	l6202
  4413                           
  4414                           ;picuno.c: 946: {
  4415                           ;picuno.c: 947: TRISDbits.TRISD0 = 0;
  4416  000958  9095               	bcf	3989,0,c	;volatile
  4417                           
  4418                           ;picuno.c: 948: LATDbits.LATD0 = 0;
  4419  00095A  908C               	bcf	3980,0,c	;volatile
  4420                           
  4421                           ;picuno.c: 949: }
  4422  00095C  0012               	return	
  4423  00095E                     l6202:
  4424                           
  4425                           ;picuno.c: 950: else if(mode==0x02)
  4426  00095E  5044               	movf	pinMode@mode,w,c
  4427  000960  0A02               	xorlw	2
  4428  000962  A4D8               	btfss	status,2,c
  4429  000964  D003               	goto	l603
  4430                           
  4431                           ;picuno.c: 951: {
  4432                           ;picuno.c: 952: TRISDbits.TRISD0 = 1;
  4433  000966  8095               	bsf	3989,0,c	;volatile
  4434                           
  4435                           ;picuno.c: 953: LATDbits.LATD0 = 0;
  4436  000968  908C               	bcf	3980,0,c	;volatile
  4437                           
  4438                           ;picuno.c: 954: }
  4439  00096A  0012               	return	
  4440  00096C                     l603:
  4441                           
  4442                           ;picuno.c: 955: else
  4443                           ;picuno.c: 956: {
  4444                           ;picuno.c: 957: TRISDbits.TRISD0 = 1;
  4445  00096C  8095               	bsf	3989,0,c	;volatile
  4446                           
  4447                           ;picuno.c: 958: LATDbits.LATD0 = 0;
  4448  00096E  908C               	bcf	3980,0,c	;volatile
  4449  000970  0012               	return	
  4450  000972                     l605:
  4451                           
  4452                           ;picuno.c: 962: if(mode==0x00)
  4453  000972  6644               	tstfsz	pinMode@mode,c
  4454  000974  D003               	goto	l6208
  4455                           
  4456                           ;picuno.c: 963: {
  4457                           ;picuno.c: 964: TRISDbits.TRISD1 = 0;
  4458  000976  9295               	bcf	3989,1,c	;volatile
  4459                           
  4460                           ;picuno.c: 965: LATDbits.LATD1 = 0;
  4461  000978  928C               	bcf	3980,1,c	;volatile
  4462                           
  4463                           ;picuno.c: 966: }
  4464  00097A  0012               	return	
  4465  00097C                     l6208:
  4466                           
  4467                           ;picuno.c: 967: else if(mode==0x02)
  4468  00097C  5044               	movf	pinMode@mode,w,c
  4469  00097E  0A02               	xorlw	2
  4470  000980  A4D8               	btfss	status,2,c
  4471  000982  D003               	goto	l608
  4472                           
  4473                           ;picuno.c: 968: {
  4474                           ;picuno.c: 969: TRISDbits.TRISD1 = 1;
  4475  000984  8295               	bsf	3989,1,c	;volatile
  4476                           
  4477                           ;picuno.c: 970: LATDbits.LATD1 = 0;
  4478  000986  928C               	bcf	3980,1,c	;volatile
  4479                           
  4480                           ;picuno.c: 971: }
  4481  000988  0012               	return	
  4482  00098A                     l608:
  4483                           
  4484                           ;picuno.c: 972: else
  4485                           ;picuno.c: 973: {
  4486                           ;picuno.c: 974: TRISDbits.TRISD1 = 1;
  4487  00098A  8295               	bsf	3989,1,c	;volatile
  4488                           
  4489                           ;picuno.c: 975: LATDbits.LATD1 = 0;
  4490  00098C  928C               	bcf	3980,1,c	;volatile
  4491  00098E  0012               	return	
  4492  000990                     l610:
  4493                           
  4494                           ;picuno.c: 979: if(mode==0x00)
  4495  000990  6644               	tstfsz	pinMode@mode,c
  4496  000992  D003               	goto	l6214
  4497                           
  4498                           ;picuno.c: 980: {
  4499                           ;picuno.c: 981: TRISDbits.TRISD2 = 0;
  4500  000994  9495               	bcf	3989,2,c	;volatile
  4501                           
  4502                           ;picuno.c: 982: LATDbits.LATD2 = 0;
  4503  000996  948C               	bcf	3980,2,c	;volatile
  4504                           
  4505                           ;picuno.c: 983: }
  4506  000998  0012               	return	
  4507  00099A                     l6214:
  4508                           
  4509                           ;picuno.c: 984: else if(mode==0x02)
  4510  00099A  5044               	movf	pinMode@mode,w,c
  4511  00099C  0A02               	xorlw	2
  4512  00099E  A4D8               	btfss	status,2,c
  4513  0009A0  D003               	goto	l613
  4514                           
  4515                           ;picuno.c: 985: {
  4516                           ;picuno.c: 986: TRISDbits.TRISD2 = 1;
  4517  0009A2  8495               	bsf	3989,2,c	;volatile
  4518                           
  4519                           ;picuno.c: 987: LATDbits.LATD2 = 0;
  4520  0009A4  948C               	bcf	3980,2,c	;volatile
  4521                           
  4522                           ;picuno.c: 988: }
  4523  0009A6  0012               	return	
  4524  0009A8                     l613:
  4525                           
  4526                           ;picuno.c: 989: else
  4527                           ;picuno.c: 990: {
  4528                           ;picuno.c: 991: TRISDbits.TRISD2 = 1;
  4529  0009A8  8495               	bsf	3989,2,c	;volatile
  4530                           
  4531                           ;picuno.c: 992: LATDbits.LATD2 = 0;
  4532  0009AA  948C               	bcf	3980,2,c	;volatile
  4533  0009AC  0012               	return	
  4534  0009AE                     l615:
  4535                           
  4536                           ;picuno.c: 996: if(mode==0x00)
  4537  0009AE  6644               	tstfsz	pinMode@mode,c
  4538  0009B0  D003               	goto	l6220
  4539                           
  4540                           ;picuno.c: 997: {
  4541                           ;picuno.c: 998: TRISDbits.TRISD3 = 0;
  4542  0009B2  9695               	bcf	3989,3,c	;volatile
  4543                           
  4544                           ;picuno.c: 999: LATDbits.LATD3 = 0;
  4545  0009B4  968C               	bcf	3980,3,c	;volatile
  4546                           
  4547                           ;picuno.c: 1000: }
  4548  0009B6  0012               	return	
  4549  0009B8                     l6220:
  4550                           
  4551                           ;picuno.c: 1001: else if(mode==0x02)
  4552  0009B8  5044               	movf	pinMode@mode,w,c
  4553  0009BA  0A02               	xorlw	2
  4554  0009BC  A4D8               	btfss	status,2,c
  4555  0009BE  D003               	goto	l618
  4556                           
  4557                           ;picuno.c: 1002: {
  4558                           ;picuno.c: 1003: TRISDbits.TRISD3 = 1;
  4559  0009C0  8695               	bsf	3989,3,c	;volatile
  4560                           
  4561                           ;picuno.c: 1004: LATDbits.LATD3 = 0;
  4562  0009C2  968C               	bcf	3980,3,c	;volatile
  4563                           
  4564                           ;picuno.c: 1005: }
  4565  0009C4  0012               	return	
  4566  0009C6                     l618:
  4567                           
  4568                           ;picuno.c: 1006: else
  4569                           ;picuno.c: 1007: {
  4570                           ;picuno.c: 1008: TRISDbits.TRISD3 = 1;
  4571  0009C6  8695               	bsf	3989,3,c	;volatile
  4572                           
  4573                           ;picuno.c: 1009: LATDbits.LATD3 = 0;
  4574  0009C8  968C               	bcf	3980,3,c	;volatile
  4575  0009CA  0012               	return	
  4576  0009CC                     l620:
  4577                           
  4578                           ;picuno.c: 1013: if(mode==0x00)
  4579  0009CC  6644               	tstfsz	pinMode@mode,c
  4580  0009CE  D003               	goto	l6226
  4581                           
  4582                           ;picuno.c: 1014: {
  4583                           ;picuno.c: 1015: TRISDbits.TRISD4 = 0;
  4584  0009D0  9895               	bcf	3989,4,c	;volatile
  4585                           
  4586                           ;picuno.c: 1016: LATDbits.LATD4 = 0;
  4587  0009D2  988C               	bcf	3980,4,c	;volatile
  4588                           
  4589                           ;picuno.c: 1017: }
  4590  0009D4  0012               	return	
  4591  0009D6                     l6226:
  4592                           
  4593                           ;picuno.c: 1018: else if(mode==0x02)
  4594  0009D6  5044               	movf	pinMode@mode,w,c
  4595  0009D8  0A02               	xorlw	2
  4596  0009DA  A4D8               	btfss	status,2,c
  4597  0009DC  D003               	goto	l623
  4598                           
  4599                           ;picuno.c: 1019: {
  4600                           ;picuno.c: 1020: TRISDbits.TRISD4 = 1;
  4601  0009DE  8895               	bsf	3989,4,c	;volatile
  4602                           
  4603                           ;picuno.c: 1021: LATDbits.LATD4 = 0;
  4604  0009E0  988C               	bcf	3980,4,c	;volatile
  4605                           
  4606                           ;picuno.c: 1022: }
  4607  0009E2  0012               	return	
  4608  0009E4                     l623:
  4609                           
  4610                           ;picuno.c: 1023: else
  4611                           ;picuno.c: 1024: {
  4612                           ;picuno.c: 1025: TRISDbits.TRISD4 = 1;
  4613  0009E4  8895               	bsf	3989,4,c	;volatile
  4614                           
  4615                           ;picuno.c: 1026: LATDbits.LATD4 = 0;
  4616  0009E6  988C               	bcf	3980,4,c	;volatile
  4617  0009E8  0012               	return	
  4618  0009EA                     l625:
  4619                           
  4620                           ;picuno.c: 1030: if(mode==0x00)
  4621  0009EA  6644               	tstfsz	pinMode@mode,c
  4622  0009EC  D003               	goto	l6232
  4623                           
  4624                           ;picuno.c: 1031: {
  4625                           ;picuno.c: 1032: TRISDbits.TRISD5 = 0;
  4626  0009EE  9A95               	bcf	3989,5,c	;volatile
  4627                           
  4628                           ;picuno.c: 1033: LATDbits.LATD5 = 0;
  4629  0009F0  9A8C               	bcf	3980,5,c	;volatile
  4630                           
  4631                           ;picuno.c: 1034: }
  4632  0009F2  0012               	return	
  4633  0009F4                     l6232:
  4634                           
  4635                           ;picuno.c: 1035: else if(mode==0x02)
  4636  0009F4  5044               	movf	pinMode@mode,w,c
  4637  0009F6  0A02               	xorlw	2
  4638  0009F8  A4D8               	btfss	status,2,c
  4639  0009FA  D003               	goto	l628
  4640                           
  4641                           ;picuno.c: 1036: {
  4642                           ;picuno.c: 1037: TRISDbits.TRISD5 = 1;
  4643  0009FC  8A95               	bsf	3989,5,c	;volatile
  4644                           
  4645                           ;picuno.c: 1038: LATDbits.LATD5 = 0;
  4646  0009FE  9A8C               	bcf	3980,5,c	;volatile
  4647                           
  4648                           ;picuno.c: 1039: }
  4649  000A00  0012               	return	
  4650  000A02                     l628:
  4651                           
  4652                           ;picuno.c: 1040: else
  4653                           ;picuno.c: 1041: {
  4654                           ;picuno.c: 1042: TRISDbits.TRISD5 = 1;
  4655  000A02  8A95               	bsf	3989,5,c	;volatile
  4656                           
  4657                           ;picuno.c: 1043: LATDbits.LATD5 = 0;
  4658  000A04  9A8C               	bcf	3980,5,c	;volatile
  4659  000A06  0012               	return	
  4660  000A08                     l630:
  4661                           
  4662                           ;picuno.c: 1047: if(mode==0x00)
  4663  000A08  6644               	tstfsz	pinMode@mode,c
  4664  000A0A  D003               	goto	l6238
  4665                           
  4666                           ;picuno.c: 1048: {
  4667                           ;picuno.c: 1049: TRISDbits.TRISD6 = 0;
  4668  000A0C  9C95               	bcf	3989,6,c	;volatile
  4669                           
  4670                           ;picuno.c: 1050: LATDbits.LATD6 = 0;
  4671  000A0E  9C8C               	bcf	3980,6,c	;volatile
  4672                           
  4673                           ;picuno.c: 1051: }
  4674  000A10  0012               	return	
  4675  000A12                     l6238:
  4676                           
  4677                           ;picuno.c: 1052: else if(mode==0x02)
  4678  000A12  5044               	movf	pinMode@mode,w,c
  4679  000A14  0A02               	xorlw	2
  4680  000A16  A4D8               	btfss	status,2,c
  4681  000A18  D003               	goto	l633
  4682                           
  4683                           ;picuno.c: 1053: {
  4684                           ;picuno.c: 1054: TRISDbits.TRISD6 = 1;
  4685  000A1A  8C95               	bsf	3989,6,c	;volatile
  4686                           
  4687                           ;picuno.c: 1055: LATDbits.LATD6 = 0;
  4688  000A1C  9C8C               	bcf	3980,6,c	;volatile
  4689                           
  4690                           ;picuno.c: 1056: }
  4691  000A1E  0012               	return	
  4692  000A20                     l633:
  4693                           
  4694                           ;picuno.c: 1057: else
  4695                           ;picuno.c: 1058: {
  4696                           ;picuno.c: 1059: TRISDbits.TRISD6 = 1;
  4697  000A20  8C95               	bsf	3989,6,c	;volatile
  4698                           
  4699                           ;picuno.c: 1060: LATDbits.LATD6 = 0;
  4700  000A22  9C8C               	bcf	3980,6,c	;volatile
  4701  000A24  0012               	return	
  4702  000A26                     l635:
  4703                           
  4704                           ;picuno.c: 1064: if(mode==0x00)
  4705  000A26  6644               	tstfsz	pinMode@mode,c
  4706  000A28  D003               	goto	l6244
  4707                           
  4708                           ;picuno.c: 1065: {
  4709                           ;picuno.c: 1066: TRISDbits.TRISD7 = 0;
  4710  000A2A  9E95               	bcf	3989,7,c	;volatile
  4711                           
  4712                           ;picuno.c: 1067: LATDbits.LATD7 = 0;
  4713  000A2C  9E8C               	bcf	3980,7,c	;volatile
  4714                           
  4715                           ;picuno.c: 1068: }
  4716  000A2E  0012               	return	
  4717  000A30                     l6244:
  4718                           
  4719                           ;picuno.c: 1069: else if(mode==0x02)
  4720  000A30  5044               	movf	pinMode@mode,w,c
  4721  000A32  0A02               	xorlw	2
  4722  000A34  A4D8               	btfss	status,2,c
  4723  000A36  D003               	goto	l638
  4724                           
  4725                           ;picuno.c: 1070: {
  4726                           ;picuno.c: 1071: TRISDbits.TRISD7 = 1;
  4727  000A38  8E95               	bsf	3989,7,c	;volatile
  4728                           
  4729                           ;picuno.c: 1072: LATDbits.LATD7 = 0;
  4730  000A3A  9E8C               	bcf	3980,7,c	;volatile
  4731                           
  4732                           ;picuno.c: 1073: }
  4733  000A3C  0012               	return	
  4734  000A3E                     l638:
  4735                           
  4736                           ;picuno.c: 1074: else
  4737                           ;picuno.c: 1075: {
  4738                           ;picuno.c: 1076: TRISDbits.TRISD7 = 1;
  4739  000A3E  8E95               	bsf	3989,7,c	;volatile
  4740                           
  4741                           ;picuno.c: 1077: LATDbits.LATD7 = 0;
  4742  000A40  9E8C               	bcf	3980,7,c	;volatile
  4743  000A42  0012               	return	
  4744  000A44                     l640:
  4745                           
  4746                           ;picuno.c: 1081: if(mode==0x00)
  4747  000A44  6644               	tstfsz	pinMode@mode,c
  4748  000A46  D003               	goto	l6250
  4749                           
  4750                           ;picuno.c: 1082: {
  4751                           ;picuno.c: 1083: TRISEbits.TRISE0 = 0;
  4752  000A48  9096               	bcf	3990,0,c	;volatile
  4753                           
  4754                           ;picuno.c: 1084: LATEbits.LATE0 = 0;
  4755  000A4A  908D               	bcf	3981,0,c	;volatile
  4756                           
  4757                           ;picuno.c: 1085: }
  4758  000A4C  0012               	return	
  4759  000A4E                     l6250:
  4760                           
  4761                           ;picuno.c: 1086: else if(mode==0x02)
  4762  000A4E  5044               	movf	pinMode@mode,w,c
  4763  000A50  0A02               	xorlw	2
  4764  000A52  A4D8               	btfss	status,2,c
  4765  000A54  D003               	goto	l643
  4766                           
  4767                           ;picuno.c: 1087: {
  4768                           ;picuno.c: 1088: TRISEbits.TRISE0 = 1;
  4769  000A56  8096               	bsf	3990,0,c	;volatile
  4770                           
  4771                           ;picuno.c: 1089: LATEbits.LATE0 = 0;
  4772  000A58  908D               	bcf	3981,0,c	;volatile
  4773                           
  4774                           ;picuno.c: 1090: }
  4775  000A5A  0012               	return	
  4776  000A5C                     l643:
  4777                           
  4778                           ;picuno.c: 1091: else
  4779                           ;picuno.c: 1092: {
  4780                           ;picuno.c: 1093: TRISEbits.TRISE0 = 1;
  4781  000A5C  8096               	bsf	3990,0,c	;volatile
  4782                           
  4783                           ;picuno.c: 1094: LATEbits.LATE0 = 0;
  4784  000A5E  908D               	bcf	3981,0,c	;volatile
  4785  000A60  0012               	return	
  4786  000A62                     l645:
  4787                           
  4788                           ;picuno.c: 1098: if(mode==0x00)
  4789  000A62  6644               	tstfsz	pinMode@mode,c
  4790  000A64  D003               	goto	l6256
  4791                           
  4792                           ;picuno.c: 1099: {
  4793                           ;picuno.c: 1100: TRISEbits.TRISE1 = 0;
  4794  000A66  9296               	bcf	3990,1,c	;volatile
  4795                           
  4796                           ;picuno.c: 1101: LATEbits.LATE1 = 0;
  4797  000A68  928D               	bcf	3981,1,c	;volatile
  4798                           
  4799                           ;picuno.c: 1102: }
  4800  000A6A  0012               	return	
  4801  000A6C                     l6256:
  4802                           
  4803                           ;picuno.c: 1103: else if(mode==0x02)
  4804  000A6C  5044               	movf	pinMode@mode,w,c
  4805  000A6E  0A02               	xorlw	2
  4806  000A70  A4D8               	btfss	status,2,c
  4807  000A72  D003               	goto	l648
  4808                           
  4809                           ;picuno.c: 1104: {
  4810                           ;picuno.c: 1105: TRISEbits.TRISE1 = 1;
  4811  000A74  8296               	bsf	3990,1,c	;volatile
  4812                           
  4813                           ;picuno.c: 1106: LATEbits.LATE1 = 0;
  4814  000A76  928D               	bcf	3981,1,c	;volatile
  4815                           
  4816                           ;picuno.c: 1107: }
  4817  000A78  0012               	return	
  4818  000A7A                     l648:
  4819                           
  4820                           ;picuno.c: 1108: else
  4821                           ;picuno.c: 1109: {
  4822                           ;picuno.c: 1110: TRISEbits.TRISE1 = 1;
  4823  000A7A  8296               	bsf	3990,1,c	;volatile
  4824                           
  4825                           ;picuno.c: 1111: LATEbits.LATE1 = 0;
  4826  000A7C  928D               	bcf	3981,1,c	;volatile
  4827  000A7E  0012               	return	
  4828  000A80                     l650:
  4829                           
  4830                           ;picuno.c: 1115: if(mode==0x00)
  4831  000A80  6644               	tstfsz	pinMode@mode,c
  4832  000A82  D003               	goto	l6262
  4833                           
  4834                           ;picuno.c: 1116: {
  4835                           ;picuno.c: 1117: TRISEbits.TRISE2 = 0;
  4836  000A84  9496               	bcf	3990,2,c	;volatile
  4837                           
  4838                           ;picuno.c: 1118: LATEbits.LATE2 = 0;
  4839  000A86  948D               	bcf	3981,2,c	;volatile
  4840                           
  4841                           ;picuno.c: 1119: }
  4842  000A88  0012               	return	
  4843  000A8A                     l6262:
  4844                           
  4845                           ;picuno.c: 1120: else if(mode==0x02)
  4846  000A8A  5044               	movf	pinMode@mode,w,c
  4847  000A8C  0A02               	xorlw	2
  4848  000A8E  A4D8               	btfss	status,2,c
  4849  000A90  D003               	goto	l653
  4850                           
  4851                           ;picuno.c: 1121: {
  4852                           ;picuno.c: 1122: TRISEbits.TRISE2 = 1;
  4853  000A92  8496               	bsf	3990,2,c	;volatile
  4854                           
  4855                           ;picuno.c: 1123: LATEbits.LATE2 = 0;
  4856  000A94  948D               	bcf	3981,2,c	;volatile
  4857                           
  4858                           ;picuno.c: 1124: }
  4859  000A96  0012               	return	
  4860  000A98                     l653:
  4861                           
  4862                           ;picuno.c: 1125: else
  4863                           ;picuno.c: 1126: {
  4864                           ;picuno.c: 1127: TRISEbits.TRISE2 = 1;
  4865  000A98  8496               	bsf	3990,2,c	;volatile
  4866                           
  4867                           ;picuno.c: 1128: LATEbits.LATE2 = 0;
  4868  000A9A  948D               	bcf	3981,2,c	;volatile
  4869  000A9C  0012               	return	
  4870  000A9E                     l6268:
  4871  000A9E  5045               	movf	pinMode@pin,w,c
  4872                           
  4873                           ; Switch size 1, requested type "space"
  4874                           ; Number of cases is 35, Range of values is 0 to 34
  4875                           ; switch strategies available:
  4876                           ; Name         Instructions Cycles
  4877                           ; simple_byte          106    54 (average)
  4878                           ;	Chosen strategy is simple_byte
  4879  000AA0  0A00               	xorlw	0	; case 0
  4880  000AA2  B4D8               	btfsc	status,2,c
  4881  000AA4  D5C2               	goto	l469
  4882  000AA6  0A01               	xorlw	1	; case 1
  4883  000AA8  B4D8               	btfsc	status,2,c
  4884  000AAA  D5D7               	goto	l477
  4885  000AAC  0A03               	xorlw	3	; case 2
  4886  000AAE  B4D8               	btfsc	status,2,c
  4887  000AB0  D5EC               	goto	l484
  4888  000AB2  0A01               	xorlw	1	; case 3
  4889  000AB4  B4D8               	btfsc	status,2,c
  4890  000AB6  D601               	goto	l491
  4891  000AB8  0A07               	xorlw	7	; case 4
  4892  000ABA  B4D8               	btfsc	status,2,c
  4893  000ABC  D616               	goto	l498
  4894  000ABE  0A01               	xorlw	1	; case 5
  4895  000AC0  B4D8               	btfsc	status,2,c
  4896  000AC2  D622               	goto	l503
  4897  000AC4  0A03               	xorlw	3	; case 6
  4898  000AC6  B4D8               	btfsc	status,2,c
  4899  000AC8  D637               	goto	l510
  4900  000ACA  0A01               	xorlw	1	; case 7
  4901  000ACC  B4D8               	btfsc	status,2,c
  4902  000ACE  D643               	goto	l515
  4903  000AD0  0A0F               	xorlw	15	; case 8
  4904  000AD2  B4D8               	btfsc	status,2,c
  4905  000AD4  D64F               	goto	l520
  4906  000AD6  0A01               	xorlw	1	; case 9
  4907  000AD8  B4D8               	btfsc	status,2,c
  4908  000ADA  D65B               	goto	l525
  4909  000ADC  0A03               	xorlw	3	; case 10
  4910  000ADE  B4D8               	btfsc	status,2,c
  4911  000AE0  D667               	goto	l530
  4912  000AE2  0A01               	xorlw	1	; case 11
  4913  000AE4  B4D8               	btfsc	status,2,c
  4914  000AE6  D673               	goto	l535
  4915  000AE8  0A07               	xorlw	7	; case 12
  4916  000AEA  B4D8               	btfsc	status,2,c
  4917  000AEC  D67F               	goto	l540
  4918  000AEE  0A01               	xorlw	1	; case 13
  4919  000AF0  B4D8               	btfsc	status,2,c
  4920  000AF2  D68B               	goto	l545
  4921  000AF4  0A03               	xorlw	3	; case 14
  4922  000AF6  B4D8               	btfsc	status,2,c
  4923  000AF8  D697               	goto	l550
  4924  000AFA  0A01               	xorlw	1	; case 15
  4925  000AFC  B4D8               	btfsc	status,2,c
  4926  000AFE  D6A3               	goto	l555
  4927  000B00  0A1F               	xorlw	31	; case 16
  4928  000B02  B4D8               	btfsc	status,2,c
  4929  000B04  D6AF               	goto	l560
  4930  000B06  0A01               	xorlw	1	; case 17
  4931  000B08  B4D8               	btfsc	status,2,c
  4932  000B0A  D6BB               	goto	l565
  4933  000B0C  0A03               	xorlw	3	; case 18
  4934  000B0E  B4D8               	btfsc	status,2,c
  4935  000B10  D6C7               	goto	l570
  4936  000B12  0A01               	xorlw	1	; case 19
  4937  000B14  B4D8               	btfsc	status,2,c
  4938  000B16  D6D3               	goto	l575
  4939  000B18  0A07               	xorlw	7	; case 20
  4940  000B1A  B4D8               	btfsc	status,2,c
  4941  000B1C  D6DF               	goto	l580
  4942  000B1E  0A01               	xorlw	1	; case 21
  4943  000B20  B4D8               	btfsc	status,2,c
  4944  000B22  D6EB               	goto	l585
  4945  000B24  0A03               	xorlw	3	; case 22
  4946  000B26  B4D8               	btfsc	status,2,c
  4947  000B28  D6F7               	goto	l590
  4948  000B2A  0A01               	xorlw	1	; case 23
  4949  000B2C  B4D8               	btfsc	status,2,c
  4950  000B2E  D703               	goto	l595
  4951  000B30  0A0F               	xorlw	15	; case 24
  4952  000B32  B4D8               	btfsc	status,2,c
  4953  000B34  D70F               	goto	l600
  4954  000B36  0A01               	xorlw	1	; case 25
  4955  000B38  B4D8               	btfsc	status,2,c
  4956  000B3A  D71B               	goto	l605
  4957  000B3C  0A03               	xorlw	3	; case 26
  4958  000B3E  B4D8               	btfsc	status,2,c
  4959  000B40  D727               	goto	l610
  4960  000B42  0A01               	xorlw	1	; case 27
  4961  000B44  B4D8               	btfsc	status,2,c
  4962  000B46  D733               	goto	l615
  4963  000B48  0A07               	xorlw	7	; case 28
  4964  000B4A  B4D8               	btfsc	status,2,c
  4965  000B4C  D73F               	goto	l620
  4966  000B4E  0A01               	xorlw	1	; case 29
  4967  000B50  B4D8               	btfsc	status,2,c
  4968  000B52  D74B               	goto	l625
  4969  000B54  0A03               	xorlw	3	; case 30
  4970  000B56  B4D8               	btfsc	status,2,c
  4971  000B58  D757               	goto	l630
  4972  000B5A  0A01               	xorlw	1	; case 31
  4973  000B5C  B4D8               	btfsc	status,2,c
  4974  000B5E  D763               	goto	l635
  4975  000B60  0A3F               	xorlw	63	; case 32
  4976  000B62  B4D8               	btfsc	status,2,c
  4977  000B64  D76F               	goto	l640
  4978  000B66  0A01               	xorlw	1	; case 33
  4979  000B68  B4D8               	btfsc	status,2,c
  4980  000B6A  D77B               	goto	l645
  4981  000B6C  0A03               	xorlw	3	; case 34
  4982  000B6E  A4D8               	btfss	status,2,c
  4983  000B70  0012               	return	
  4984  000B72  D786               	goto	l650
  4985  000B74                     __end_of_pinMode:
  4986                           	opt stack 0
  4987                           tblptru	equ	0xFF8
  4988                           tblptrh	equ	0xFF7
  4989                           tblptrl	equ	0xFF6
  4990                           tablat	equ	0xFF5
  4991                           prodh	equ	0xFF4
  4992                           prodl	equ	0xFF3
  4993                           postinc0	equ	0xFEE
  4994                           wreg	equ	0xFE8
  4995                           postdec1	equ	0xFE5
  4996                           fsr1l	equ	0xFE1
  4997                           indf2	equ	0xFDF
  4998                           postinc2	equ	0xFDE
  4999                           postdec2	equ	0xFDD
  5000                           fsr2h	equ	0xFDA
  5001                           fsr2l	equ	0xFD9
  5002                           status	equ	0xFD8
  5003                           
  5004 ;; *************** function _analogInput *****************
  5005 ;; Defined at:
  5006 ;;		line 466 in file "picuno.c"
  5007 ;; Parameters:    Size  Location     Type
  5008 ;;  ANx             1    wreg     unsigned char 
  5009 ;; Auto vars:     Size  Location     Type
  5010 ;;  ANx             1   19[COMRAM] unsigned char 
  5011 ;;  d               1   20[COMRAM] unsigned char 
  5012 ;; Return value:  Size  Location     Type
  5013 ;;		None               void
  5014 ;; Registers used:
  5015 ;;		wreg, status,2, status,0
  5016 ;; Tracked objects:
  5017 ;;		On entry : 0/0
  5018 ;;		On exit  : 0/0
  5019 ;;		Unchanged: 0/0
  5020 ;; Data sizes:     COMRAM   BANK0   BANK1   BANK2   BANK3   BANK4   BANK5
  5021 ;;      Params:         0       0       0       0       0       0       0
  5022 ;;      Locals:         2       0       0       0       0       0       0
  5023 ;;      Temps:          2       0       0       0       0       0       0
  5024 ;;      Totals:         4       0       0       0       0       0       0
  5025 ;;Total ram usage:        4 bytes
  5026 ;; Hardware stack levels used:    1
  5027 ;; Hardware stack levels required when called:    3
  5028 ;; This function calls:
  5029 ;;		Nothing
  5030 ;; This function is called by:
  5031 ;;		_pinMode
  5032 ;; This function uses a non-reentrant model
  5033 ;;
  5034                           
  5035                           	psect	text19
  5036  001824                     __ptext19:
  5037                           	opt stack 0
  5038  001824                     _analogInput:
  5039                           	opt stack 24
  5040                           
  5041                           ;incstack = 0
  5042                           ;analogInput@ANx stored from wreg
  5043  001824  6E42               	movwf	analogInput@ANx,c
  5044                           
  5045                           ;picuno.c: 468: byte d;
  5046                           ;picuno.c: 477: d = (1 << ANx);
  5047  001826  C042  F040         	movff	analogInput@ANx,??_analogInput
  5048  00182A  0E01               	movlw	1
  5049  00182C  6E41               	movwf	(??_analogInput+1)& (0+255),c
  5050  00182E  2A40               	incf	??_analogInput,f,c
  5051  001830  D002               	goto	u6734
  5052  001832                     u6735:
  5053  001832  90D8               	bcf	status,0,c
  5054  001834  3641               	rlcf	??_analogInput+1,f,c
  5055  001836                     u6734:
  5056  001836  2E40               	decfsz	??_analogInput,f,c
  5057  001838  D7FC               	goto	u6735
  5058  00183A  5041               	movf	??_analogInput+1,w,c
  5059  00183C  6E43               	movwf	analogInput@d,c
  5060                           
  5061                           ;picuno.c: 478: ANSELA |= d;
  5062  00183E  5043               	movf	analogInput@d,w,c
  5063  001840  010F               	movlb	15	; () banked
  5064  001842  1338               	iorwf	56,f,b	;volatile
  5065                           
  5066                           ; BSR set to: 15
  5067  001844  0012               	return	
  5068  001846                     __end_of_analogInput:
  5069                           	opt stack 0
  5070                           tblptru	equ	0xFF8
  5071                           tblptrh	equ	0xFF7
  5072                           tblptrl	equ	0xFF6
  5073                           tablat	equ	0xFF5
  5074                           prodh	equ	0xFF4
  5075                           prodl	equ	0xFF3
  5076                           postinc0	equ	0xFEE
  5077                           wreg	equ	0xFE8
  5078                           postdec1	equ	0xFE5
  5079                           fsr1l	equ	0xFE1
  5080                           indf2	equ	0xFDF
  5081                           postinc2	equ	0xFDE
  5082                           postdec2	equ	0xFDD
  5083                           fsr2h	equ	0xFDA
  5084                           fsr2l	equ	0xFD9
  5085                           status	equ	0xFD8
  5086                           
  5087 ;; *************** function _digitalRead *****************
  5088 ;; Defined at:
  5089 ;;		line 1448 in file "picuno.c"
  5090 ;; Parameters:    Size  Location     Type
  5091 ;;  pin             1    wreg     unsigned char 
  5092 ;; Auto vars:     Size  Location     Type
  5093 ;;  pin             1   17[COMRAM] unsigned char 
  5094 ;;  di              1   18[COMRAM] unsigned char 
  5095 ;; Return value:  Size  Location     Type
  5096 ;;                  1    wreg      unsigned char 
  5097 ;; Registers used:
  5098 ;;		wreg, status,2, status,0
  5099 ;; Tracked objects:
  5100 ;;		On entry : 0/0
  5101 ;;		On exit  : 0/0
  5102 ;;		Unchanged: 0/0
  5103 ;; Data sizes:     COMRAM   BANK0   BANK1   BANK2   BANK3   BANK4   BANK5
  5104 ;;      Params:         0       0       0       0       0       0       0
  5105 ;;      Locals:         2       0       0       0       0       0       0
  5106 ;;      Temps:          0       0       0       0       0       0       0
  5107 ;;      Totals:         2       0       0       0       0       0       0
  5108 ;;Total ram usage:        2 bytes
  5109 ;; Hardware stack levels used:    1
  5110 ;; Hardware stack levels required when called:    3
  5111 ;; This function calls:
  5112 ;;		Nothing
  5113 ;; This function is called by:
  5114 ;;		_setup
  5115 ;;		_loop
  5116 ;;		_pulseIn
  5117 ;;		_keypadRead
  5118 ;; This function uses a non-reentrant model
  5119 ;;
  5120                           
  5121                           	psect	text20
  5122  000DF2                     __ptext20:
  5123                           	opt stack 0
  5124  000DF2                     _digitalRead:
  5125                           	opt stack 26
  5126                           
  5127                           ; BSR set to: 15
  5128                           ;incstack = 0
  5129                           ;digitalRead@pin stored from wreg
  5130  000DF2  6E40               	movwf	digitalRead@pin,c
  5131                           
  5132                           ;picuno.c: 1450: char di=0;
  5133  000DF4  0E00               	movlw	0
  5134  000DF6  6E41               	movwf	digitalRead@di,c
  5135                           
  5136                           ;picuno.c: 1452: switch(pin)
  5137  000DF8  D0AF               	goto	l6354
  5138  000DFA                     l659:
  5139  000DFA  0E00               	movlw	0
  5140  000DFC  B080               	btfsc	3968,0,c	;volatile
  5141  000DFE  0E01               	movlw	1
  5142  000E00  6E41               	movwf	digitalRead@di,c
  5143  000E02  D114               	goto	l660
  5144  000E04                     l661:
  5145  000E04  0E00               	movlw	0
  5146  000E06  B280               	btfsc	3968,1,c	;volatile
  5147  000E08  0E01               	movlw	1
  5148  000E0A  6E41               	movwf	digitalRead@di,c
  5149  000E0C  D10F               	goto	l660
  5150  000E0E                     l662:
  5151  000E0E  0E00               	movlw	0
  5152  000E10  B480               	btfsc	3968,2,c	;volatile
  5153  000E12  0E01               	movlw	1
  5154  000E14  6E41               	movwf	digitalRead@di,c
  5155  000E16  D10A               	goto	l660
  5156  000E18                     l663:
  5157  000E18  0E00               	movlw	0
  5158  000E1A  B680               	btfsc	3968,3,c	;volatile
  5159  000E1C  0E01               	movlw	1
  5160  000E1E  6E41               	movwf	digitalRead@di,c
  5161  000E20  D105               	goto	l660
  5162  000E22                     l664:
  5163  000E22  0E00               	movlw	0
  5164  000E24  B880               	btfsc	3968,4,c	;volatile
  5165  000E26  0E01               	movlw	1
  5166  000E28  6E41               	movwf	digitalRead@di,c
  5167  000E2A  D100               	goto	l660
  5168  000E2C                     l665:
  5169  000E2C  0E00               	movlw	0
  5170  000E2E  BA80               	btfsc	3968,5,c	;volatile
  5171  000E30  0E01               	movlw	1
  5172  000E32  6E41               	movwf	digitalRead@di,c
  5173  000E34  D0FB               	goto	l660
  5174  000E36                     l666:
  5175  000E36  0E00               	movlw	0
  5176  000E38  BC80               	btfsc	3968,6,c	;volatile
  5177  000E3A  0E01               	movlw	1
  5178  000E3C  6E41               	movwf	digitalRead@di,c
  5179  000E3E  D0F6               	goto	l660
  5180  000E40                     l667:
  5181  000E40  0E00               	movlw	0
  5182  000E42  BE80               	btfsc	3968,7,c	;volatile
  5183  000E44  0E01               	movlw	1
  5184  000E46  6E41               	movwf	digitalRead@di,c
  5185  000E48  D0F1               	goto	l660
  5186  000E4A                     l668:
  5187  000E4A  0E00               	movlw	0
  5188  000E4C  B081               	btfsc	3969,0,c	;volatile
  5189  000E4E  0E01               	movlw	1
  5190  000E50  6E41               	movwf	digitalRead@di,c
  5191  000E52  D0EC               	goto	l660
  5192  000E54                     l669:
  5193  000E54  0E00               	movlw	0
  5194  000E56  B281               	btfsc	3969,1,c	;volatile
  5195  000E58  0E01               	movlw	1
  5196  000E5A  6E41               	movwf	digitalRead@di,c
  5197  000E5C  D0E7               	goto	l660
  5198  000E5E                     l670:
  5199  000E5E  0E00               	movlw	0
  5200  000E60  B481               	btfsc	3969,2,c	;volatile
  5201  000E62  0E01               	movlw	1
  5202  000E64  6E41               	movwf	digitalRead@di,c
  5203  000E66  D0E2               	goto	l660
  5204  000E68                     l671:
  5205  000E68  0E00               	movlw	0
  5206  000E6A  B681               	btfsc	3969,3,c	;volatile
  5207  000E6C  0E01               	movlw	1
  5208  000E6E  6E41               	movwf	digitalRead@di,c
  5209  000E70  D0DD               	goto	l660
  5210  000E72                     l672:
  5211  000E72  0E00               	movlw	0
  5212  000E74  B881               	btfsc	3969,4,c	;volatile
  5213  000E76  0E01               	movlw	1
  5214  000E78  6E41               	movwf	digitalRead@di,c
  5215  000E7A  D0D8               	goto	l660
  5216  000E7C                     l673:
  5217  000E7C  0E00               	movlw	0
  5218  000E7E  BA81               	btfsc	3969,5,c	;volatile
  5219  000E80  0E01               	movlw	1
  5220  000E82  6E41               	movwf	digitalRead@di,c
  5221  000E84  D0D3               	goto	l660
  5222  000E86                     l674:
  5223  000E86  0E00               	movlw	0
  5224  000E88  BC81               	btfsc	3969,6,c	;volatile
  5225  000E8A  0E01               	movlw	1
  5226  000E8C  6E41               	movwf	digitalRead@di,c
  5227  000E8E  D0CE               	goto	l660
  5228  000E90                     l675:
  5229  000E90  0E00               	movlw	0
  5230  000E92  BE81               	btfsc	3969,7,c	;volatile
  5231  000E94  0E01               	movlw	1
  5232  000E96  6E41               	movwf	digitalRead@di,c
  5233  000E98  D0C9               	goto	l660
  5234  000E9A                     l676:
  5235  000E9A  0E00               	movlw	0
  5236  000E9C  B082               	btfsc	3970,0,c	;volatile
  5237  000E9E  0E01               	movlw	1
  5238  000EA0  6E41               	movwf	digitalRead@di,c
  5239  000EA2  D0C4               	goto	l660
  5240  000EA4                     l677:
  5241  000EA4  0E00               	movlw	0
  5242  000EA6  B282               	btfsc	3970,1,c	;volatile
  5243  000EA8  0E01               	movlw	1
  5244  000EAA  6E41               	movwf	digitalRead@di,c
  5245  000EAC  D0BF               	goto	l660
  5246  000EAE                     l678:
  5247  000EAE  0E00               	movlw	0
  5248  000EB0  B482               	btfsc	3970,2,c	;volatile
  5249  000EB2  0E01               	movlw	1
  5250  000EB4  6E41               	movwf	digitalRead@di,c
  5251  000EB6  D0BA               	goto	l660
  5252  000EB8                     l679:
  5253  000EB8  0E00               	movlw	0
  5254  000EBA  B682               	btfsc	3970,3,c	;volatile
  5255  000EBC  0E01               	movlw	1
  5256  000EBE  6E41               	movwf	digitalRead@di,c
  5257  000EC0  D0B5               	goto	l660
  5258  000EC2                     l680:
  5259  000EC2  0E00               	movlw	0
  5260  000EC4  B882               	btfsc	3970,4,c	;volatile
  5261  000EC6  0E01               	movlw	1
  5262  000EC8  6E41               	movwf	digitalRead@di,c
  5263  000ECA  D0B0               	goto	l660
  5264  000ECC                     l681:
  5265  000ECC  0E00               	movlw	0
  5266  000ECE  BA82               	btfsc	3970,5,c	;volatile
  5267  000ED0  0E01               	movlw	1
  5268  000ED2  6E41               	movwf	digitalRead@di,c
  5269  000ED4  D0AB               	goto	l660
  5270  000ED6                     l682:
  5271  000ED6  0E00               	movlw	0
  5272  000ED8  BC82               	btfsc	3970,6,c	;volatile
  5273  000EDA  0E01               	movlw	1
  5274  000EDC  6E41               	movwf	digitalRead@di,c
  5275  000EDE  D0A6               	goto	l660
  5276  000EE0                     l683:
  5277  000EE0  0E00               	movlw	0
  5278  000EE2  BE82               	btfsc	3970,7,c	;volatile
  5279  000EE4  0E01               	movlw	1
  5280  000EE6  6E41               	movwf	digitalRead@di,c
  5281  000EE8  D0A1               	goto	l660
  5282  000EEA                     l684:
  5283  000EEA  0E00               	movlw	0
  5284  000EEC  B083               	btfsc	3971,0,c	;volatile
  5285  000EEE  0E01               	movlw	1
  5286  000EF0  6E41               	movwf	digitalRead@di,c
  5287  000EF2  D09C               	goto	l660
  5288  000EF4                     l685:
  5289  000EF4  0E00               	movlw	0
  5290  000EF6  B283               	btfsc	3971,1,c	;volatile
  5291  000EF8  0E01               	movlw	1
  5292  000EFA  6E41               	movwf	digitalRead@di,c
  5293  000EFC  D097               	goto	l660
  5294  000EFE                     l686:
  5295  000EFE  0E00               	movlw	0
  5296  000F00  B483               	btfsc	3971,2,c	;volatile
  5297  000F02  0E01               	movlw	1
  5298  000F04  6E41               	movwf	digitalRead@di,c
  5299  000F06  D092               	goto	l660
  5300  000F08                     l687:
  5301  000F08  0E00               	movlw	0
  5302  000F0A  B683               	btfsc	3971,3,c	;volatile
  5303  000F0C  0E01               	movlw	1
  5304  000F0E  6E41               	movwf	digitalRead@di,c
  5305  000F10  D08D               	goto	l660
  5306  000F12                     l688:
  5307  000F12  0E00               	movlw	0
  5308  000F14  B883               	btfsc	3971,4,c	;volatile
  5309  000F16  0E01               	movlw	1
  5310  000F18  6E41               	movwf	digitalRead@di,c
  5311  000F1A  D088               	goto	l660
  5312  000F1C                     l689:
  5313  000F1C  0E00               	movlw	0
  5314  000F1E  BA83               	btfsc	3971,5,c	;volatile
  5315  000F20  0E01               	movlw	1
  5316  000F22  6E41               	movwf	digitalRead@di,c
  5317  000F24  D083               	goto	l660
  5318  000F26                     l690:
  5319  000F26  0E00               	movlw	0
  5320  000F28  BC83               	btfsc	3971,6,c	;volatile
  5321  000F2A  0E01               	movlw	1
  5322  000F2C  6E41               	movwf	digitalRead@di,c
  5323  000F2E  D07E               	goto	l660
  5324  000F30                     l691:
  5325  000F30  0E00               	movlw	0
  5326  000F32  BE83               	btfsc	3971,7,c	;volatile
  5327  000F34  0E01               	movlw	1
  5328  000F36  6E41               	movwf	digitalRead@di,c
  5329  000F38  D079               	goto	l660
  5330  000F3A                     l692:
  5331  000F3A  0E00               	movlw	0
  5332  000F3C  B084               	btfsc	3972,0,c	;volatile
  5333  000F3E  0E01               	movlw	1
  5334  000F40  6E41               	movwf	digitalRead@di,c
  5335  000F42  D074               	goto	l660
  5336  000F44                     l693:
  5337  000F44  0E00               	movlw	0
  5338  000F46  B284               	btfsc	3972,1,c	;volatile
  5339  000F48  0E01               	movlw	1
  5340  000F4A  6E41               	movwf	digitalRead@di,c
  5341  000F4C  D06F               	goto	l660
  5342  000F4E                     l694:
  5343  000F4E  0E00               	movlw	0
  5344  000F50  B484               	btfsc	3972,2,c	;volatile
  5345  000F52  0E01               	movlw	1
  5346  000F54  6E41               	movwf	digitalRead@di,c
  5347  000F56  D06A               	goto	l660
  5348  000F58                     l6354:
  5349  000F58  5040               	movf	digitalRead@pin,w,c
  5350                           
  5351                           ; Switch size 1, requested type "space"
  5352                           ; Number of cases is 35, Range of values is 0 to 34
  5353                           ; switch strategies available:
  5354                           ; Name         Instructions Cycles
  5355                           ; simple_byte          106    54 (average)
  5356                           ;	Chosen strategy is simple_byte
  5357  000F5A  0A00               	xorlw	0	; case 0
  5358  000F5C  B4D8               	btfsc	status,2,c
  5359  000F5E  D74D               	goto	l659
  5360  000F60  0A01               	xorlw	1	; case 1
  5361  000F62  B4D8               	btfsc	status,2,c
  5362  000F64  D74F               	goto	l661
  5363  000F66  0A03               	xorlw	3	; case 2
  5364  000F68  B4D8               	btfsc	status,2,c
  5365  000F6A  D751               	goto	l662
  5366  000F6C  0A01               	xorlw	1	; case 3
  5367  000F6E  B4D8               	btfsc	status,2,c
  5368  000F70  D753               	goto	l663
  5369  000F72  0A07               	xorlw	7	; case 4
  5370  000F74  B4D8               	btfsc	status,2,c
  5371  000F76  D755               	goto	l664
  5372  000F78  0A01               	xorlw	1	; case 5
  5373  000F7A  B4D8               	btfsc	status,2,c
  5374  000F7C  D757               	goto	l665
  5375  000F7E  0A03               	xorlw	3	; case 6
  5376  000F80  B4D8               	btfsc	status,2,c
  5377  000F82  D759               	goto	l666
  5378  000F84  0A01               	xorlw	1	; case 7
  5379  000F86  B4D8               	btfsc	status,2,c
  5380  000F88  D75B               	goto	l667
  5381  000F8A  0A0F               	xorlw	15	; case 8
  5382  000F8C  B4D8               	btfsc	status,2,c
  5383  000F8E  D75D               	goto	l668
  5384  000F90  0A01               	xorlw	1	; case 9
  5385  000F92  B4D8               	btfsc	status,2,c
  5386  000F94  D75F               	goto	l669
  5387  000F96  0A03               	xorlw	3	; case 10
  5388  000F98  B4D8               	btfsc	status,2,c
  5389  000F9A  D761               	goto	l670
  5390  000F9C  0A01               	xorlw	1	; case 11
  5391  000F9E  B4D8               	btfsc	status,2,c
  5392  000FA0  D763               	goto	l671
  5393  000FA2  0A07               	xorlw	7	; case 12
  5394  000FA4  B4D8               	btfsc	status,2,c
  5395  000FA6  D765               	goto	l672
  5396  000FA8  0A01               	xorlw	1	; case 13
  5397  000FAA  B4D8               	btfsc	status,2,c
  5398  000FAC  D767               	goto	l673
  5399  000FAE  0A03               	xorlw	3	; case 14
  5400  000FB0  B4D8               	btfsc	status,2,c
  5401  000FB2  D769               	goto	l674
  5402  000FB4  0A01               	xorlw	1	; case 15
  5403  000FB6  B4D8               	btfsc	status,2,c
  5404  000FB8  D76B               	goto	l675
  5405  000FBA  0A1F               	xorlw	31	; case 16
  5406  000FBC  B4D8               	btfsc	status,2,c
  5407  000FBE  D76D               	goto	l676
  5408  000FC0  0A01               	xorlw	1	; case 17
  5409  000FC2  B4D8               	btfsc	status,2,c
  5410  000FC4  D76F               	goto	l677
  5411  000FC6  0A03               	xorlw	3	; case 18
  5412  000FC8  B4D8               	btfsc	status,2,c
  5413  000FCA  D771               	goto	l678
  5414  000FCC  0A01               	xorlw	1	; case 19
  5415  000FCE  B4D8               	btfsc	status,2,c
  5416  000FD0  D773               	goto	l679
  5417  000FD2  0A07               	xorlw	7	; case 20
  5418  000FD4  B4D8               	btfsc	status,2,c
  5419  000FD6  D775               	goto	l680
  5420  000FD8  0A01               	xorlw	1	; case 21
  5421  000FDA  B4D8               	btfsc	status,2,c
  5422  000FDC  D777               	goto	l681
  5423  000FDE  0A03               	xorlw	3	; case 22
  5424  000FE0  B4D8               	btfsc	status,2,c
  5425  000FE2  D779               	goto	l682
  5426  000FE4  0A01               	xorlw	1	; case 23
  5427  000FE6  B4D8               	btfsc	status,2,c
  5428  000FE8  D77B               	goto	l683
  5429  000FEA  0A0F               	xorlw	15	; case 24
  5430  000FEC  B4D8               	btfsc	status,2,c
  5431  000FEE  D77D               	goto	l684
  5432  000FF0  0A01               	xorlw	1	; case 25
  5433  000FF2  B4D8               	btfsc	status,2,c
  5434  000FF4  D77F               	goto	l685
  5435  000FF6  0A03               	xorlw	3	; case 26
  5436  000FF8  B4D8               	btfsc	status,2,c
  5437  000FFA  D781               	goto	l686
  5438  000FFC  0A01               	xorlw	1	; case 27
  5439  000FFE  B4D8               	btfsc	status,2,c
  5440  001000  D783               	goto	l687
  5441  001002  0A07               	xorlw	7	; case 28
  5442  001004  B4D8               	btfsc	status,2,c
  5443  001006  D785               	goto	l688
  5444  001008  0A01               	xorlw	1	; case 29
  5445  00100A  B4D8               	btfsc	status,2,c
  5446  00100C  D787               	goto	l689
  5447  00100E  0A03               	xorlw	3	; case 30
  5448  001010  B4D8               	btfsc	status,2,c
  5449  001012  D789               	goto	l690
  5450  001014  0A01               	xorlw	1	; case 31
  5451  001016  B4D8               	btfsc	status,2,c
  5452  001018  D78B               	goto	l691
  5453  00101A  0A3F               	xorlw	63	; case 32
  5454  00101C  B4D8               	btfsc	status,2,c
  5455  00101E  D78D               	goto	l692
  5456  001020  0A01               	xorlw	1	; case 33
  5457  001022  B4D8               	btfsc	status,2,c
  5458  001024  D78F               	goto	l693
  5459  001026  0A03               	xorlw	3	; case 34
  5460  001028  B4D8               	btfsc	status,2,c
  5461  00102A  D791               	goto	l694
  5462  00102C                     l660:
  5463                           
  5464                           ;picuno.c: 1501: return di;
  5465  00102C  5041               	movf	digitalRead@di,w,c
  5466  00102E  0012               	return	
  5467  001030                     __end_of_digitalRead:
  5468                           	opt stack 0
  5469                           tblptru	equ	0xFF8
  5470                           tblptrh	equ	0xFF7
  5471                           tblptrl	equ	0xFF6
  5472                           tablat	equ	0xFF5
  5473                           prodh	equ	0xFF4
  5474                           prodl	equ	0xFF3
  5475                           postinc0	equ	0xFEE
  5476                           wreg	equ	0xFE8
  5477                           postdec1	equ	0xFE5
  5478                           fsr1l	equ	0xFE1
  5479                           indf2	equ	0xFDF
  5480                           postinc2	equ	0xFDE
  5481                           postdec2	equ	0xFDD
  5482                           fsr2h	equ	0xFDA
  5483                           fsr2l	equ	0xFD9
  5484                           status	equ	0xFD8
  5485                           
  5486 ;; *************** function _Serial2_read *****************
  5487 ;; Defined at:
  5488 ;;		line 2374 in file "picuno.c"
  5489 ;; Parameters:    Size  Location     Type
  5490 ;;		None
  5491 ;; Auto vars:     Size  Location     Type
  5492 ;;  d               1   17[COMRAM] unsigned char 
  5493 ;; Return value:  Size  Location     Type
  5494 ;;                  1    wreg      unsigned char 
  5495 ;; Registers used:
  5496 ;;		wreg, fsr2l, fsr2h, status,2, status,0, prodl, prodh
  5497 ;; Tracked objects:
  5498 ;;		On entry : 0/0
  5499 ;;		On exit  : 0/0
  5500 ;;		Unchanged: 0/0
  5501 ;; Data sizes:     COMRAM   BANK0   BANK1   BANK2   BANK3   BANK4   BANK5
  5502 ;;      Params:         0       0       0       0       0       0       0
  5503 ;;      Locals:         1       0       0       0       0       0       0
  5504 ;;      Temps:          0       0       0       0       0       0       0
  5505 ;;      Totals:         1       0       0       0       0       0       0
  5506 ;;Total ram usage:        1 bytes
  5507 ;; Hardware stack levels used:    1
  5508 ;; Hardware stack levels required when called:    3
  5509 ;; This function calls:
  5510 ;;		Nothing
  5511 ;; This function is called by:
  5512 ;;		_loop
  5513 ;; This function uses a non-reentrant model
  5514 ;;
  5515                           
  5516                           	psect	text21
  5517  001704                     __ptext21:
  5518                           	opt stack 0
  5519  001704                     _Serial2_read:
  5520                           	opt stack 26
  5521                           
  5522                           ;picuno.c: 2376: byte d=0;
  5523                           
  5524                           ;incstack = 0
  5525  001704  0E00               	movlw	0
  5526  001706  6E40               	movwf	Serial2_read@d,c
  5527                           
  5528                           ;picuno.c: 2378: if(uart2_rx_pos < uart2_rx_cnt)
  5529  001708  5028               	movf	_uart2_rx_cnt,w,c
  5530  00170A  5C29               	subwf	_uart2_rx_pos,w,c
  5531  00170C  B0D8               	btfsc	status,0,c
  5532  00170E  D016               	goto	l1119
  5533                           
  5534                           ;picuno.c: 2379: {
  5535                           ;picuno.c: 2380: d = uart2_rxbuf[uart2_rx_pos++];
  5536  001710  5029               	movf	_uart2_rx_pos,w,c
  5537  001712  0D01               	mullw	1
  5538  001714  0101               	movlb	1	; () banked
  5539  001716  0E60               	movlw	low _uart2_rxbuf
  5540  001718  24F3               	addwf	prodl,w,c
  5541  00171A  6ED9               	movwf	fsr2l,c
  5542  00171C  0101               	movlb	1	; () banked
  5543  00171E  0E01               	movlw	high _uart2_rxbuf
  5544  001720  20F4               	addwfc	prodh,w,c
  5545  001722  6EDA               	movwf	fsr2h,c
  5546  001724  50DF               	movf	indf2,w,c
  5547  001726  6E40               	movwf	Serial2_read@d,c
  5548                           
  5549                           ; BSR set to: 1
  5550  001728  2A29               	incf	_uart2_rx_pos,f,c
  5551                           
  5552                           ; BSR set to: 1
  5553                           ;picuno.c: 2381: if(uart2_rx_pos == uart2_rx_cnt)
  5554  00172A  5028               	movf	_uart2_rx_cnt,w,c
  5555  00172C  6229               	cpfseq	_uart2_rx_pos,c
  5556  00172E  D006               	goto	l1119
  5557                           
  5558                           ; BSR set to: 1
  5559                           ;picuno.c: 2382: {
  5560                           ;picuno.c: 2383: uart2_rx_pos = 0;
  5561  001730  0E00               	movlw	0
  5562  001732  6E29               	movwf	_uart2_rx_pos,c
  5563                           
  5564                           ;picuno.c: 2384: uart2_rx_cnt = 0;
  5565  001734  0E00               	movlw	0
  5566  001736  6E28               	movwf	_uart2_rx_cnt,c
  5567                           
  5568                           ;picuno.c: 2385: uart2_rx_ready = 0;
  5569  001738  0E00               	movlw	0
  5570  00173A  6E2A               	movwf	_uart2_rx_ready,c
  5571  00173C                     l1119:
  5572                           
  5573                           ;picuno.c: 2386: }
  5574                           ;picuno.c: 2387: }
  5575                           ;picuno.c: 2388: return d;
  5576  00173C  5040               	movf	Serial2_read@d,w,c
  5577  00173E  0012               	return	
  5578  001740                     __end_of_Serial2_read:
  5579                           	opt stack 0
  5580                           tblptru	equ	0xFF8
  5581                           tblptrh	equ	0xFF7
  5582                           tblptrl	equ	0xFF6
  5583                           tablat	equ	0xFF5
  5584                           prodh	equ	0xFF4
  5585                           prodl	equ	0xFF3
  5586                           postinc0	equ	0xFEE
  5587                           wreg	equ	0xFE8
  5588                           postdec1	equ	0xFE5
  5589                           fsr1l	equ	0xFE1
  5590                           indf2	equ	0xFDF
  5591                           postinc2	equ	0xFDE
  5592                           postdec2	equ	0xFDD
  5593                           fsr2h	equ	0xFDA
  5594                           fsr2l	equ	0xFD9
  5595                           status	equ	0xFD8
  5596                           
  5597 ;; *************** function _Serial2_println *****************
  5598 ;; Defined at:
  5599 ;;		line 2346 in file "picuno.c"
  5600 ;; Parameters:    Size  Location     Type
  5601 ;;  str             2   19[COMRAM] PTR const unsigned char 
  5602 ;;		 -> buf(32), STR_1(19), 
  5603 ;; Auto vars:     Size  Location     Type
  5604 ;;		None
  5605 ;; Return value:  Size  Location     Type
  5606 ;;		None               void
  5607 ;; Registers used:
  5608 ;;		wreg, fsr0l, fsr0h, fsr2l, fsr2h, status,2, status,0, tblptrl, tblptrh, tblptru, prodl, prodh, cstack
  5609 ;; Tracked objects:
  5610 ;;		On entry : 0/0
  5611 ;;		On exit  : 0/0
  5612 ;;		Unchanged: 0/0
  5613 ;; Data sizes:     COMRAM   BANK0   BANK1   BANK2   BANK3   BANK4   BANK5
  5614 ;;      Params:         2       0       0       0       0       0       0
  5615 ;;      Locals:         0       0       0       0       0       0       0
  5616 ;;      Temps:          0       0       0       0       0       0       0
  5617 ;;      Totals:         2       0       0       0       0       0       0
  5618 ;;Total ram usage:        2 bytes
  5619 ;; Hardware stack levels used:    1
  5620 ;; Hardware stack levels required when called:    4
  5621 ;; This function calls:
  5622 ;;		_Serial2_putc
  5623 ;; This function is called by:
  5624 ;;		_setup
  5625 ;;		_loop
  5626 ;; This function uses a non-reentrant model
  5627 ;;
  5628                           
  5629                           	psect	text22
  5630  001606                     __ptext22:
  5631                           	opt stack 0
  5632  001606                     _Serial2_println:
  5633                           	opt stack 25
  5634                           
  5635                           ;picuno.c: 2348: while(*str){
  5636                           
  5637                           ;incstack = 0
  5638  001606  D014               	goto	l6440
  5639  001608                     l6436:
  5640                           
  5641                           ;picuno.c: 2349: Serial2_putc(*str);
  5642  001608  C042  FFF6         	movff	Serial2_println@str,tblptrl
  5643  00160C  C043  FFF7         	movff	Serial2_println@str+1,tblptrh
  5644  001610  6AF8               	clrf	tblptru,c
  5645  001612  0E05               	movlw	(high __ramtop+-1)
  5646  001614  64F7               	cpfsgt	tblptrh,c
  5647  001616  D003               	bra	u8017
  5648  001618  0008               	tblrd		*
  5649  00161A  50F5               	movf	tablat,w,c
  5650  00161C  D005               	bra	u8010
  5651  00161E                     u8017:
  5652  00161E  CFF6 FFE9          	movff	tblptrl,fsr0l
  5653  001622  CFF7 FFEA          	movff	tblptrh,fsr0h
  5654  001626  50EF               	movf	indf0,w,c
  5655  001628                     u8010:
  5656  001628  EC32  F00B         	call	_Serial2_putc
  5657                           
  5658                           ;picuno.c: 2350: str++;
  5659  00162C  4A42               	infsnz	Serial2_println@str,f,c
  5660  00162E  2A43               	incf	Serial2_println@str+1,f,c
  5661  001630                     l6440:
  5662  001630  C042  FFF6         	movff	Serial2_println@str,tblptrl
  5663  001634  C043  FFF7         	movff	Serial2_println@str+1,tblptrh
  5664  001638  6AF8               	clrf	tblptru,c
  5665  00163A  0E05               	movlw	(high __ramtop+-1)
  5666  00163C  64F7               	cpfsgt	tblptrh,c
  5667  00163E  D003               	bra	u8027
  5668  001640  0008               	tblrd		*
  5669  001642  50F5               	movf	tablat,w,c
  5670  001644  D005               	bra	u8020
  5671  001646                     u8027:
  5672  001646  CFF6 FFE9          	movff	tblptrl,fsr0l
  5673  00164A  CFF7 FFEA          	movff	tblptrh,fsr0h
  5674  00164E  50EF               	movf	indf0,w,c
  5675  001650                     u8020:
  5676  001650  0900               	iorlw	0
  5677  001652  A4D8               	btfss	status,2,c
  5678  001654  D7D9               	goto	l6436
  5679                           
  5680                           ;picuno.c: 2351: }
  5681                           ;picuno.c: 2352: Serial2_putc(0x0D);
  5682  001656  0E0D               	movlw	13
  5683  001658  EC32  F00B         	call	_Serial2_putc
  5684                           
  5685                           ;picuno.c: 2353: Serial2_putc(0x0A);
  5686  00165C  0E0A               	movlw	10
  5687  00165E  EC32  F00B         	call	_Serial2_putc
  5688  001662  0012               	return	
  5689  001664                     __end_of_Serial2_println:
  5690                           	opt stack 0
  5691                           tblptru	equ	0xFF8
  5692                           tblptrh	equ	0xFF7
  5693                           tblptrl	equ	0xFF6
  5694                           tablat	equ	0xFF5
  5695                           prodh	equ	0xFF4
  5696                           prodl	equ	0xFF3
  5697                           indf0	equ	0xFEF
  5698                           postinc0	equ	0xFEE
  5699                           fsr0h	equ	0xFEA
  5700                           fsr0l	equ	0xFE9
  5701                           wreg	equ	0xFE8
  5702                           postdec1	equ	0xFE5
  5703                           fsr1l	equ	0xFE1
  5704                           indf2	equ	0xFDF
  5705                           postinc2	equ	0xFDE
  5706                           postdec2	equ	0xFDD
  5707                           fsr2h	equ	0xFDA
  5708                           fsr2l	equ	0xFD9
  5709                           status	equ	0xFD8
  5710                           
  5711 ;; *************** function _Serial2_putc *****************
  5712 ;; Defined at:
  5713 ;;		line 2280 in file "picuno.c"
  5714 ;; Parameters:    Size  Location     Type
  5715 ;;  d               1    wreg     unsigned char 
  5716 ;; Auto vars:     Size  Location     Type
  5717 ;;  d               1   18[COMRAM] unsigned char 
  5718 ;;  p               1   17[COMRAM] unsigned char 
  5719 ;; Return value:  Size  Location     Type
  5720 ;;		None               void
  5721 ;; Registers used:
  5722 ;;		wreg, fsr2l, fsr2h, status,2, status,0, prodl, prodh
  5723 ;; Tracked objects:
  5724 ;;		On entry : 0/0
  5725 ;;		On exit  : 0/0
  5726 ;;		Unchanged: 0/0
  5727 ;; Data sizes:     COMRAM   BANK0   BANK1   BANK2   BANK3   BANK4   BANK5
  5728 ;;      Params:         0       0       0       0       0       0       0
  5729 ;;      Locals:         2       0       0       0       0       0       0
  5730 ;;      Temps:          0       0       0       0       0       0       0
  5731 ;;      Totals:         2       0       0       0       0       0       0
  5732 ;;Total ram usage:        2 bytes
  5733 ;; Hardware stack levels used:    1
  5734 ;; Hardware stack levels required when called:    3
  5735 ;; This function calls:
  5736 ;;		Nothing
  5737 ;; This function is called by:
  5738 ;;		_Serial2_println
  5739 ;;		_Serial2_crlf
  5740 ;;		_Serial2_puth
  5741 ;;		_Serial2_puti
  5742 ;;		_Serial2_print
  5743 ;;		_Serial2_write
  5744 ;;		_Serial2_writeln
  5745 ;; This function uses a non-reentrant model
  5746 ;;
  5747                           
  5748                           	psect	text23
  5749  001664                     __ptext23:
  5750                           	opt stack 0
  5751  001664                     _Serial2_putc:
  5752                           	opt stack 25
  5753                           
  5754                           ;incstack = 0
  5755                           ;Serial2_putc@d stored from wreg
  5756  001664  6E41               	movwf	Serial2_putc@d,c
  5757                           
  5758                           ;picuno.c: 2282: unsigned char p;
  5759                           ;picuno.c: 2287: if(uart2_tx_cnt)
  5760  001666  502B               	movf	_uart2_tx_cnt,w,c
  5761  001668  B4D8               	btfsc	status,2,c
  5762  00166A  D018               	goto	l1069
  5763  00166C                     l6330:
  5764  00166C  502B               	movf	_uart2_tx_cnt,w,c
  5765  00166E  0A20               	xorlw	32
  5766  001670  B4D8               	btfsc	status,2,c
  5767  001672  D7FC               	goto	l6330
  5768                           
  5769                           ;picuno.c: 2290: INTCONbits.GIEH = 0;
  5770  001674  9EF2               	bcf	intcon,7,c	;volatile
  5771                           
  5772                           ;picuno.c: 2291: p = (uart2_tx_cnt + uart2_tx_pos) % 32;
  5773  001676  502B               	movf	_uart2_tx_cnt,w,c
  5774  001678  242C               	addwf	_uart2_tx_pos,w,c
  5775  00167A  0B1F               	andlw	31
  5776  00167C  6E40               	movwf	Serial2_putc@p,c
  5777                           
  5778                           ;picuno.c: 2292: uart2_txbuf[p] = d;
  5779  00167E  5040               	movf	Serial2_putc@p,w,c
  5780  001680  0D01               	mullw	1
  5781  001682  0100               	movlb	0	; () banked
  5782  001684  0E81               	movlw	low _uart2_txbuf
  5783  001686  24F3               	addwf	prodl,w,c
  5784  001688  6ED9               	movwf	fsr2l,c
  5785  00168A  0100               	movlb	0	; () banked
  5786  00168C  0E00               	movlw	high _uart2_txbuf
  5787  00168E  20F4               	addwfc	prodh,w,c
  5788  001690  6EDA               	movwf	fsr2h,c
  5789  001692  C041  FFDF         	movff	Serial2_putc@d,indf2
  5790                           
  5791                           ; BSR set to: 0
  5792                           ;picuno.c: 2293: uart2_tx_cnt++;
  5793  001696  2A2B               	incf	_uart2_tx_cnt,f,c
  5794                           
  5795                           ; BSR set to: 0
  5796                           ;picuno.c: 2294: INTCONbits.GIEH = 1;
  5797  001698  8EF2               	bsf	intcon,7,c	;volatile
  5798                           
  5799                           ;picuno.c: 2295: }
  5800  00169A  0012               	return	
  5801  00169C                     l1069:
  5802                           
  5803                           ;picuno.c: 2296: else if(TX2IF)
  5804  00169C  A8A4               	btfss	4004,4,c	;volatile
  5805  00169E  D003               	goto	l6342
  5806                           
  5807                           ;picuno.c: 2297: {
  5808                           ;picuno.c: 2298: TXREG2 = d;
  5809  0016A0  C041  FF73         	movff	Serial2_putc@d,3955	;volatile
  5810                           
  5811                           ;picuno.c: 2299: }
  5812  0016A4  0012               	return	
  5813  0016A6                     l6342:
  5814                           
  5815                           ;picuno.c: 2300: else
  5816                           ;picuno.c: 2301: {
  5817                           ;picuno.c: 2302: uart2_tx_cnt = 1;
  5818  0016A6  0E01               	movlw	1
  5819  0016A8  6E2B               	movwf	_uart2_tx_cnt,c
  5820                           
  5821                           ;picuno.c: 2303: uart2_tx_pos = 0;
  5822  0016AA  0E00               	movlw	0
  5823  0016AC  6E2C               	movwf	_uart2_tx_pos,c
  5824                           
  5825                           ;picuno.c: 2304: uart2_txbuf[0] = d;
  5826  0016AE  C041  F081         	movff	Serial2_putc@d,_uart2_txbuf
  5827                           
  5828                           ;picuno.c: 2305: TX2IE = 1;
  5829  0016B2  88A3               	bsf	4003,4,c	;volatile
  5830  0016B4  0012               	return	
  5831  0016B6                     __end_of_Serial2_putc:
  5832                           	opt stack 0
  5833                           tblptru	equ	0xFF8
  5834                           tblptrh	equ	0xFF7
  5835                           tblptrl	equ	0xFF6
  5836                           tablat	equ	0xFF5
  5837                           prodh	equ	0xFF4
  5838                           prodl	equ	0xFF3
  5839                           intcon	equ	0xFF2
  5840                           indf0	equ	0xFEF
  5841                           postinc0	equ	0xFEE
  5842                           fsr0h	equ	0xFEA
  5843                           fsr0l	equ	0xFE9
  5844                           wreg	equ	0xFE8
  5845                           postdec1	equ	0xFE5
  5846                           fsr1l	equ	0xFE1
  5847                           indf2	equ	0xFDF
  5848                           postinc2	equ	0xFDE
  5849                           postdec2	equ	0xFDD
  5850                           fsr2h	equ	0xFDA
  5851                           fsr2l	equ	0xFD9
  5852                           status	equ	0xFD8
  5853                           
  5854 ;; *************** function _Serial2_available *****************
  5855 ;; Defined at:
  5856 ;;		line 2275 in file "picuno.c"
  5857 ;; Parameters:    Size  Location     Type
  5858 ;;		None
  5859 ;; Auto vars:     Size  Location     Type
  5860 ;;		None
  5861 ;; Return value:  Size  Location     Type
  5862 ;;                  1    wreg      unsigned char 
  5863 ;; Registers used:
  5864 ;;		wreg, status,2
  5865 ;; Tracked objects:
  5866 ;;		On entry : 0/0
  5867 ;;		On exit  : 0/0
  5868 ;;		Unchanged: 0/0
  5869 ;; Data sizes:     COMRAM   BANK0   BANK1   BANK2   BANK3   BANK4   BANK5
  5870 ;;      Params:         0       0       0       0       0       0       0
  5871 ;;      Locals:         0       0       0       0       0       0       0
  5872 ;;      Temps:          0       0       0       0       0       0       0
  5873 ;;      Totals:         0       0       0       0       0       0       0
  5874 ;;Total ram usage:        0 bytes
  5875 ;; Hardware stack levels used:    1
  5876 ;; Hardware stack levels required when called:    3
  5877 ;; This function calls:
  5878 ;;		Nothing
  5879 ;; This function is called by:
  5880 ;;		_loop
  5881 ;; This function uses a non-reentrant model
  5882 ;;
  5883                           
  5884                           	psect	text24
  5885  0018C6                     __ptext24:
  5886                           	opt stack 0
  5887  0018C6                     _Serial2_available:
  5888                           	opt stack 26
  5889                           
  5890                           ;picuno.c: 2277: return uart2_rx_cnt;
  5891                           
  5892                           ;incstack = 0
  5893  0018C6  5028               	movf	_uart2_rx_cnt,w,c
  5894  0018C8  0012               	return	
  5895  0018CA                     __end_of_Serial2_available:
  5896                           	opt stack 0
  5897                           tblptru	equ	0xFF8
  5898                           tblptrh	equ	0xFF7
  5899                           tblptrl	equ	0xFF6
  5900                           tablat	equ	0xFF5
  5901                           prodh	equ	0xFF4
  5902                           prodl	equ	0xFF3
  5903                           intcon	equ	0xFF2
  5904                           indf0	equ	0xFEF
  5905                           postinc0	equ	0xFEE
  5906                           fsr0h	equ	0xFEA
  5907                           fsr0l	equ	0xFE9
  5908                           wreg	equ	0xFE8
  5909                           postdec1	equ	0xFE5
  5910                           fsr1l	equ	0xFE1
  5911                           indf2	equ	0xFDF
  5912                           postinc2	equ	0xFDE
  5913                           postdec2	equ	0xFDD
  5914                           fsr2h	equ	0xFDA
  5915                           fsr2l	equ	0xFD9
  5916                           status	equ	0xFD8
  5917                           
  5918 ;; *************** function _init *****************
  5919 ;; Defined at:
  5920 ;;		line 187 in file "picuno.c"
  5921 ;; Parameters:    Size  Location     Type
  5922 ;;		None
  5923 ;; Auto vars:     Size  Location     Type
  5924 ;;  i               1   17[COMRAM] unsigned char 
  5925 ;; Return value:  Size  Location     Type
  5926 ;;		None               void
  5927 ;; Registers used:
  5928 ;;		wreg, fsr2l, fsr2h, status,2, status,0, prodl, prodh
  5929 ;; Tracked objects:
  5930 ;;		On entry : 0/0
  5931 ;;		On exit  : 0/0
  5932 ;;		Unchanged: 0/0
  5933 ;; Data sizes:     COMRAM   BANK0   BANK1   BANK2   BANK3   BANK4   BANK5
  5934 ;;      Params:         0       0       0       0       0       0       0
  5935 ;;      Locals:         1       0       0       0       0       0       0
  5936 ;;      Temps:          0       0       0       0       0       0       0
  5937 ;;      Totals:         1       0       0       0       0       0       0
  5938 ;;Total ram usage:        1 bytes
  5939 ;; Hardware stack levels used:    1
  5940 ;; Hardware stack levels required when called:    3
  5941 ;; This function calls:
  5942 ;;		Nothing
  5943 ;; This function is called by:
  5944 ;;		_main
  5945 ;; This function uses a non-reentrant model
  5946 ;;
  5947                           
  5948                           	psect	text25
  5949  001484                     __ptext25:
  5950                           	opt stack 0
  5951  001484                     _init:
  5952                           	opt stack 27
  5953                           
  5954                           ;picuno.c: 189: byte i;
  5955                           ;picuno.c: 192: OSCCON = 0x70;
  5956                           
  5957                           ;incstack = 0
  5958  001484  0E70               	movlw	112
  5959  001486  6ED3               	movwf	4051,c	;volatile
  5960                           
  5961                           ;picuno.c: 194: OSCCON2 = 0x04;
  5962  001488  0E04               	movlw	4
  5963  00148A  6ED2               	movwf	4050,c	;volatile
  5964                           
  5965                           ;picuno.c: 196: OSCTUNE = 0x40;
  5966  00148C  0E40               	movlw	64
  5967  00148E  6E9B               	movwf	3995,c	;volatile
  5968  001490                     l387:
  5969  001490  AED2               	btfss	4050,7,c	;volatile
  5970  001492  D7FE               	goto	l387
  5971                           
  5972                           ;picuno.c: 200: }
  5973                           ;picuno.c: 212: ANSELA = 0b00000000;
  5974  001494  0E00               	movlw	0
  5975  001496  010F               	movlb	15	; () banked
  5976  001498  6F38               	movwf	56,b	;volatile
  5977                           
  5978                           ;picuno.c: 213: ANSELB = 0b00000000;
  5979  00149A  0E00               	movlw	0
  5980  00149C  010F               	movlb	15	; () banked
  5981  00149E  6F39               	movwf	57,b	;volatile
  5982                           
  5983                           ;picuno.c: 214: ANSELC = 0b00000000;
  5984  0014A0  0E00               	movlw	0
  5985  0014A2  010F               	movlb	15	; () banked
  5986  0014A4  6F3A               	movwf	58,b	;volatile
  5987                           
  5988                           ;picuno.c: 215: ANSELD = 0b00000000;
  5989  0014A6  0E00               	movlw	0
  5990  0014A8  010F               	movlb	15	; () banked
  5991  0014AA  6F3B               	movwf	59,b	;volatile
  5992                           
  5993                           ;picuno.c: 216: ANSELE = 0b00000000;
  5994  0014AC  0E00               	movlw	0
  5995  0014AE  010F               	movlb	15	; () banked
  5996  0014B0  6F3C               	movwf	60,b	;volatile
  5997                           
  5998                           ;picuno.c: 217: VREFCON0 = 0b10110000;
  5999  0014B2  0EB0               	movlw	176
  6000  0014B4  010F               	movlb	15	; () banked
  6001  0014B6  6F42               	movwf	66,b	;volatile
  6002                           
  6003                           ;picuno.c: 218: ADCON1 = 0b00110000;
  6004  0014B8  0E30               	movlw	48
  6005  0014BA  6EC1               	movwf	4033,c	;volatile
  6006                           
  6007                           ;picuno.c: 219: ADCON2 = 0b10000011;
  6008  0014BC  0E83               	movlw	131
  6009  0014BE  6EC0               	movwf	4032,c	;volatile
  6010                           
  6011                           ;picuno.c: 230: LATA = 0x00;
  6012  0014C0  0E00               	movlw	0
  6013  0014C2  6E89               	movwf	3977,c	;volatile
  6014                           
  6015                           ;picuno.c: 231: LATB = 0x00;
  6016  0014C4  0E00               	movlw	0
  6017  0014C6  6E8A               	movwf	3978,c	;volatile
  6018                           
  6019                           ;picuno.c: 232: LATC = 0x00;
  6020  0014C8  0E00               	movlw	0
  6021  0014CA  6E8B               	movwf	3979,c	;volatile
  6022                           
  6023                           ;picuno.c: 233: LATD = 0x00;
  6024  0014CC  0E00               	movlw	0
  6025  0014CE  6E8C               	movwf	3980,c	;volatile
  6026                           
  6027                           ;picuno.c: 234: LATE = 0x00;
  6028  0014D0  0E00               	movlw	0
  6029  0014D2  6E8D               	movwf	3981,c	;volatile
  6030                           
  6031                           ;picuno.c: 237: for(i=0;i<10;i++) TimerArray[i]=0;
  6032  0014D4  0E00               	movlw	0
  6033  0014D6  6E40               	movwf	init@i,c
  6034  0014D8  D00F               	goto	L1
  6035  0014DA                     l4746:
  6036  0014DA  5040               	movf	init@i,w,c
  6037  0014DC  0D02               	mullw	2
  6038  0014DE  0100               	movlb	0	; () banked
  6039  0014E0  0EA2               	movlw	low _TimerArray
  6040  0014E2  24F3               	addwf	prodl,w,c
  6041  0014E4  6ED9               	movwf	fsr2l,c
  6042  0014E6  0100               	movlb	0	; () banked
  6043  0014E8  0E00               	movlw	high _TimerArray
  6044  0014EA  20F4               	addwfc	prodh,w,c
  6045  0014EC  6EDA               	movwf	fsr2h,c
  6046  0014EE  0E00               	movlw	0
  6047  0014F0  6EDE               	movwf	postinc2,c
  6048  0014F2  0E00               	movlw	0
  6049  0014F4  6EDD               	movwf	postdec2,c
  6050                           
  6051                           ; BSR set to: 0
  6052  0014F6  2A40               	incf	init@i,f,c
  6053  0014F8                     L1:
  6054                           
  6055                           ; BSR set to: 0
  6056  0014F8  0E09               	movlw	9
  6057  0014FA  6440               	cpfsgt	init@i,c
  6058  0014FC  D7EE               	goto	l4746
  6059                           
  6060                           ;picuno.c: 240: T0CON = 0b00000000;
  6061                           
  6062                           ; BSR set to: 0
  6063  0014FE  0E00               	movlw	0
  6064  001500  6ED5               	movwf	4053,c	;volatile
  6065                           
  6066                           ;picuno.c: 241: TMR0IF = 0;
  6067  001502  94F2               	bcf	intcon,2,c	;volatile
  6068                           
  6069                           ;picuno.c: 242: TMR0IE = 1;
  6070  001504  8AF2               	bsf	intcon,5,c	;volatile
  6071                           
  6072                           ;picuno.c: 243: TMR0IP = 1;
  6073  001506  84F1               	bsf	intcon2,2,c	;volatile
  6074                           
  6075                           ;picuno.c: 247: PIR1bits.TMR1IF = 0;
  6076  001508  909E               	bcf	3998,0,c	;volatile
  6077                           
  6078                           ;picuno.c: 249: T1GCON = 0x00;
  6079  00150A  0E00               	movlw	0
  6080  00150C  6ECC               	movwf	4044,c	;volatile
  6081                           
  6082                           ;picuno.c: 251: T1CON = 0x32;
  6083  00150E  0E32               	movlw	50
  6084  001510  6ECD               	movwf	4045,c	;volatile
  6085                           
  6086                           ;picuno.c: 267: T0CON = 0b10010001;
  6087  001512  0E91               	movlw	145
  6088  001514  6ED5               	movwf	4053,c	;volatile
  6089                           
  6090                           ;picuno.c: 270: PEIE = 1;
  6091  001516  8CF2               	bsf	intcon,6,c	;volatile
  6092                           
  6093                           ;picuno.c: 272: RCONbits.IPEN = 1;
  6094  001518  8ED0               	bsf	4048,7,c	;volatile
  6095                           
  6096                           ;picuno.c: 273: INTCONbits.GIEH = 1;
  6097  00151A  8EF2               	bsf	intcon,7,c	;volatile
  6098  00151C  0012               	return	
  6099  00151E                     __end_of_init:
  6100                           	opt stack 0
  6101                           tblptru	equ	0xFF8
  6102                           tblptrh	equ	0xFF7
  6103                           tblptrl	equ	0xFF6
  6104                           tablat	equ	0xFF5
  6105                           prodh	equ	0xFF4
  6106                           prodl	equ	0xFF3
  6107                           intcon	equ	0xFF2
  6108                           intcon2	equ	0xFF1
  6109                           indf0	equ	0xFEF
  6110                           postinc0	equ	0xFEE
  6111                           fsr0h	equ	0xFEA
  6112                           fsr0l	equ	0xFE9
  6113                           wreg	equ	0xFE8
  6114                           postdec1	equ	0xFE5
  6115                           fsr1l	equ	0xFE1
  6116                           indf2	equ	0xFDF
  6117                           postinc2	equ	0xFDE
  6118                           postdec2	equ	0xFDD
  6119                           fsr2h	equ	0xFDA
  6120                           fsr2l	equ	0xFD9
  6121                           status	equ	0xFD8
  6122                           
  6123 ;; *************** function _InterruptHandlerHigh *****************
  6124 ;; Defined at:
  6125 ;;		line 52 in file "picuno.c"
  6126 ;; Parameters:    Size  Location     Type
  6127 ;;		None
  6128 ;; Auto vars:     Size  Location     Type
  6129 ;;  dd              2   14[COMRAM] unsigned int 
  6130 ;;  i               1   16[COMRAM] unsigned char 
  6131 ;; Return value:  Size  Location     Type
  6132 ;;		None               void
  6133 ;; Registers used:
  6134 ;;		wreg, fsr2l, fsr2h, status,2, status,0, prodl, prodh, cstack
  6135 ;; Tracked objects:
  6136 ;;		On entry : 0/0
  6137 ;;		On exit  : 0/0
  6138 ;;		Unchanged: 0/0
  6139 ;; Data sizes:     COMRAM   BANK0   BANK1   BANK2   BANK3   BANK4   BANK5
  6140 ;;      Params:         0       0       0       0       0       0       0
  6141 ;;      Locals:         3       0       0       0       0       0       0
  6142 ;;      Temps:         14       0       0       0       0       0       0
  6143 ;;      Totals:        17       0       0       0       0       0       0
  6144 ;;Total ram usage:       17 bytes
  6145 ;; Hardware stack levels used:    1
  6146 ;; Hardware stack levels required when called:    2
  6147 ;; This function calls:
  6148 ;;		_INT0_ISR
  6149 ;;		_INT1_ISR
  6150 ;;		_INT2_ISR
  6151 ;; This function is called by:
  6152 ;;		Interrupt level 2
  6153 ;; This function uses a non-reentrant model
  6154 ;;
  6155                           
  6156                           	psect	intcode
  6157  000008                     __pintcode:
  6158                           	opt stack 0
  6159  000008                     _InterruptHandlerHigh:
  6160                           	opt stack 23
  6161                           
  6162                           ;incstack = 0
  6163  000008  CFFA F02F          	movff	pclath,??_InterruptHandlerHigh
  6164  00000C  CFFB F030          	movff	pclatu,??_InterruptHandlerHigh+1
  6165  000010  CFE9 F031          	movff	fsr0l,??_InterruptHandlerHigh+2
  6166  000014  CFEA F032          	movff	fsr0h,??_InterruptHandlerHigh+3
  6167  000018  CFE1 F033          	movff	fsr1l,??_InterruptHandlerHigh+4
  6168  00001C  CFE2 F034          	movff	fsr1h,??_InterruptHandlerHigh+5
  6169  000020  CFD9 F035          	movff	fsr2l,??_InterruptHandlerHigh+6
  6170  000024  CFDA F036          	movff	fsr2h,??_InterruptHandlerHigh+7
  6171  000028  CFF3 F037          	movff	prodl,??_InterruptHandlerHigh+8
  6172  00002C  CFF4 F038          	movff	prodh,??_InterruptHandlerHigh+9
  6173  000030  CFF6 F039          	movff	tblptrl,??_InterruptHandlerHigh+10
  6174  000034  CFF7 F03A          	movff	tblptrh,??_InterruptHandlerHigh+11
  6175  000038  CFF8 F03B          	movff	tblptru,??_InterruptHandlerHigh+12
  6176  00003C  CFF5 F03C          	movff	tablat,??_InterruptHandlerHigh+13
  6177                           
  6178                           ;picuno.c: 54: byte i;
  6179                           ;picuno.c: 55: unsigned int dd;
  6180                           ;picuno.c: 58: if(INTCONbits.INT0IE == 1 && INTCONbits.INT0IF == 1)
  6181  000040  B8F2               	btfsc	intcon,4,c	;volatile
  6182  000042  A2F2               	btfss	intcon,1,c	;volatile
  6183  000044  D003               	goto	i2l349
  6184                           
  6185                           ;picuno.c: 59: {
  6186                           ;picuno.c: 60: INT0_ISR();
  6187  000046  EC5D  F00C         	call	_INT0_ISR	;wreg free
  6188                           
  6189                           ;picuno.c: 61: }
  6190  00004A  D00B               	goto	i2l5002
  6191  00004C                     i2l349:
  6192                           
  6193                           ;picuno.c: 62: else if(INTCON3bits.INT1IE == 1 && INTCON3bits.INT1IF == 1)
  6194  00004C  B6F0               	btfsc	intcon3,3,c	;volatile
  6195  00004E  A0F0               	btfss	intcon3,0,c	;volatile
  6196  000050  D003               	goto	i2l351
  6197                           
  6198                           ;picuno.c: 63: {
  6199                           ;picuno.c: 64: INT1_ISR();
  6200  000052  EC59  F00C         	call	_INT1_ISR	;wreg free
  6201                           
  6202                           ;picuno.c: 65: }
  6203  000056  D005               	goto	i2l5002
  6204  000058                     i2l351:
  6205                           
  6206                           ;picuno.c: 66: else if(INTCON3bits.INT2IE == 1 && INTCON3bits.INT2IF == 1)
  6207  000058  B8F0               	btfsc	intcon3,4,c	;volatile
  6208  00005A  A2F0               	btfss	intcon3,1,c	;volatile
  6209  00005C  D002               	goto	i2l5002
  6210                           
  6211                           ;picuno.c: 67: {
  6212                           ;picuno.c: 68: INT2_ISR();
  6213  00005E  EC55  F00C         	call	_INT2_ISR	;wreg free
  6214  000062                     i2l5002:
  6215                           
  6216                           ;picuno.c: 69: }
  6217                           ;picuno.c: 72: if (INTCONbits.TMR0IF)
  6218  000062  A4F2               	btfss	intcon,2,c	;volatile
  6219  000064  D068               	goto	i2l354
  6220                           
  6221                           ;picuno.c: 73: {
  6222                           ;picuno.c: 75: TMR0H = 0x63;
  6223  000066  0E63               	movlw	99
  6224  000068  6ED7               	movwf	4055,c	;volatile
  6225                           
  6226                           ;picuno.c: 76: TMR0L = 0xBF;
  6227  00006A  0EBF               	movlw	191
  6228  00006C  6ED6               	movwf	4054,c	;volatile
  6229                           
  6230                           ;picuno.c: 80: INTCONbits.TMR0IF = 0;
  6231  00006E  94F2               	bcf	intcon,2,c	;volatile
  6232                           
  6233                           ;picuno.c: 81: Flags.Bit.bit0 = 1;
  6234  000070  8001               	bsf	_Flags,0,c
  6235                           
  6236                           ;picuno.c: 82: sysTick++;
  6237  000072  0E01               	movlw	1
  6238  000074  0100               	movlb	0	; () banked
  6239  000076  27B6               	addwf	_sysTick& (0+255),f,b
  6240  000078  0E00               	movlw	0
  6241  00007A  0100               	movlb	0	; () banked
  6242  00007C  23B7               	addwfc	(_sysTick+1)& (0+255),f,b
  6243  00007E  0100               	movlb	0	; () banked
  6244  000080  23B8               	addwfc	(_sysTick+2)& (0+255),f,b
  6245  000082  0100               	movlb	0	; () banked
  6246  000084  23B9               	addwfc	(_sysTick+3)& (0+255),f,b
  6247                           
  6248                           ; BSR set to: 0
  6249                           ;picuno.c: 84: if(TmrRxd1)
  6250  000086  5004               	movf	_TmrRxd1,w,c
  6251  000088  B4D8               	btfsc	status,2,c
  6252  00008A  D005               	goto	i2l355
  6253                           
  6254                           ; BSR set to: 0
  6255                           ;picuno.c: 85: {
  6256                           ;picuno.c: 86: TmrRxd1--;
  6257  00008C  0604               	decf	_TmrRxd1,f,c
  6258                           
  6259                           ; BSR set to: 0
  6260                           ;picuno.c: 87: if(!TmrRxd1)
  6261  00008E  6604               	tstfsz	_TmrRxd1,c
  6262  000090  D002               	goto	i2l355
  6263                           
  6264                           ; BSR set to: 0
  6265                           ;picuno.c: 88: {
  6266                           ;picuno.c: 89: uart1_rx_ready=1;
  6267  000092  0E01               	movlw	1
  6268  000094  6E22               	movwf	_uart1_rx_ready,c
  6269  000096                     i2l355:
  6270                           
  6271                           ; BSR set to: 0
  6272                           ;picuno.c: 90: }
  6273                           ;picuno.c: 91: }
  6274                           ;picuno.c: 94: if(TmrRxd2)
  6275  000096  5005               	movf	_TmrRxd2,w,c
  6276  000098  B4D8               	btfsc	status,2,c
  6277  00009A  D005               	goto	i2l357
  6278                           
  6279                           ; BSR set to: 0
  6280                           ;picuno.c: 95: {
  6281                           ;picuno.c: 96: TmrRxd2--;
  6282  00009C  0605               	decf	_TmrRxd2,f,c
  6283                           
  6284                           ; BSR set to: 0
  6285                           ;picuno.c: 97: if(!TmrRxd2)
  6286  00009E  6605               	tstfsz	_TmrRxd2,c
  6287  0000A0  D002               	goto	i2l357
  6288                           
  6289                           ; BSR set to: 0
  6290                           ;picuno.c: 98: {
  6291                           ;picuno.c: 99: uart2_rx_ready=1;
  6292  0000A2  0E01               	movlw	1
  6293  0000A4  6E2A               	movwf	_uart2_rx_ready,c
  6294  0000A6                     i2l357:
  6295                           
  6296                           ; BSR set to: 0
  6297                           ;picuno.c: 100: }
  6298                           ;picuno.c: 101: }
  6299                           ;picuno.c: 104: if(OneSec) OneSec--;
  6300  0000A6  504C               	movf	_OneSec,w,c
  6301  0000A8  A4D8               	btfss	status,2,c
  6302                           
  6303                           ; BSR set to: 0
  6304  0000AA  064C               	decf	_OneSec,f,c
  6305                           
  6306                           ; BSR set to: 0
  6307                           ;picuno.c: 105: if(OneSec==50) Flags.Bit.bit2 = ~Flags.Bit.bit2;
  6308                           
  6309                           ; BSR set to: 0
  6310  0000AC  504C               	movf	_OneSec,w,c
  6311  0000AE  0A32               	xorlw	50
  6312  0000B0  B4D8               	btfsc	status,2,c
  6313                           
  6314                           ; BSR set to: 0
  6315  0000B2  7401               	btg	_Flags,2,c
  6316                           
  6317                           ; BSR set to: 0
  6318                           ;picuno.c: 106: if(OneSec==0)
  6319  0000B4  664C               	tstfsz	_OneSec,c
  6320  0000B6  D006               	goto	i2l5038
  6321                           
  6322                           ; BSR set to: 0
  6323                           ;picuno.c: 107: {
  6324                           ;picuno.c: 108: OneSec=100;
  6325  0000B8  0E64               	movlw	100
  6326  0000BA  6E4C               	movwf	_OneSec,c
  6327                           
  6328                           ; BSR set to: 0
  6329                           ;picuno.c: 109: Flags.Bit.bit3 = ~Flags.Bit.bit3;
  6330  0000BC  7601               	btg	_Flags,3,c
  6331                           
  6332                           ;picuno.c: 110: if(TmrSec) TmrSec--;
  6333  0000BE  504D               	movf	_TmrSec,w,c
  6334  0000C0  A4D8               	btfss	status,2,c
  6335                           
  6336                           ; BSR set to: 0
  6337  0000C2  064D               	decf	_TmrSec,f,c
  6338  0000C4                     i2l5038:
  6339                           
  6340                           ; BSR set to: 0
  6341                           ;picuno.c: 111: }
  6342                           ;picuno.c: 113: if(HMSec) HMSec--;
  6343  0000C4  504B               	movf	_HMSec,w,c
  6344  0000C6  A4D8               	btfss	status,2,c
  6345                           
  6346                           ; BSR set to: 0
  6347  0000C8  064B               	decf	_HMSec,f,c
  6348                           
  6349                           ; BSR set to: 0
  6350                           ;picuno.c: 114: if(!HMSec){HMSec=10; Flags.Bit.bit1 = ~Flags.Bit.bit1;}
  6351                           
  6352                           ; BSR set to: 0
  6353  0000CA  664B               	tstfsz	_HMSec,c
  6354  0000CC  D003               	goto	i2l364
  6355                           
  6356                           ; BSR set to: 0
  6357  0000CE  0E0A               	movlw	10
  6358  0000D0  6E4B               	movwf	_HMSec,c
  6359                           
  6360                           ; BSR set to: 0
  6361  0000D2  7201               	btg	_Flags,1,c
  6362  0000D4                     i2l364:
  6363                           
  6364                           ; BSR set to: 0
  6365                           ;picuno.c: 116: if(TimerFlag)
  6366  0000D4  5003               	movf	_TimerFlag,w,c
  6367  0000D6  B4D8               	btfsc	status,2,c
  6368  0000D8  D02E               	goto	i2l354
  6369                           
  6370                           ; BSR set to: 0
  6371                           ;picuno.c: 117: {
  6372                           ;picuno.c: 118: TimerFlag = 0;
  6373  0000DA  0E00               	movlw	0
  6374  0000DC  6E03               	movwf	_TimerFlag,c
  6375                           
  6376                           ;picuno.c: 119: for(i=0;i<10;i++)
  6377  0000DE  0E00               	movlw	0
  6378  0000E0  6E3F               	movwf	InterruptHandlerHigh@i,c
  6379  0000E2  D026               	goto	L3
  6380  0000E4                     i2l5054:
  6381                           
  6382                           ; BSR set to: 0
  6383                           ;picuno.c: 120: {
  6384                           ;picuno.c: 121: dd=TimerArray[i];
  6385  0000E4  503F               	movf	InterruptHandlerHigh@i,w,c
  6386  0000E6  0D02               	mullw	2
  6387  0000E8  0100               	movlb	0	; () banked
  6388  0000EA  0EA2               	movlw	low _TimerArray
  6389  0000EC  24F3               	addwf	prodl,w,c
  6390  0000EE  6ED9               	movwf	fsr2l,c
  6391  0000F0  0100               	movlb	0	; () banked
  6392  0000F2  0E00               	movlw	high _TimerArray
  6393  0000F4  20F4               	addwfc	prodh,w,c
  6394  0000F6  6EDA               	movwf	fsr2h,c
  6395  0000F8  CFDE F03D          	movff	postinc2,InterruptHandlerHigh@dd
  6396  0000FC  CFDD F03E          	movff	postdec2,InterruptHandlerHigh@dd+1
  6397                           
  6398                           ; BSR set to: 0
  6399                           ;picuno.c: 122: if(dd) { dd--; TimerFlag=1; }
  6400  000100  503E               	movf	InterruptHandlerHigh@dd+1,w,c
  6401  000102  103D               	iorwf	InterruptHandlerHigh@dd,w,c
  6402  000104  B4D8               	btfsc	status,2,c
  6403  000106  D005               	goto	i2l5062
  6404                           
  6405                           ; BSR set to: 0
  6406  000108  063D               	decf	InterruptHandlerHigh@dd,f,c
  6407  00010A  A0D8               	btfss	status,0,c
  6408  00010C  063E               	decf	InterruptHandlerHigh@dd+1,f,c
  6409                           
  6410                           ; BSR set to: 0
  6411  00010E  0E01               	movlw	1
  6412  000110  6E03               	movwf	_TimerFlag,c
  6413  000112                     i2l5062:
  6414                           
  6415                           ; BSR set to: 0
  6416                           ;picuno.c: 123: TimerArray[i]=dd;
  6417  000112  503F               	movf	InterruptHandlerHigh@i,w,c
  6418  000114  0D02               	mullw	2
  6419  000116  0100               	movlb	0	; () banked
  6420  000118  0EA2               	movlw	low _TimerArray
  6421  00011A  24F3               	addwf	prodl,w,c
  6422  00011C  6ED9               	movwf	fsr2l,c
  6423  00011E  0100               	movlb	0	; () banked
  6424  000120  0E00               	movlw	high _TimerArray
  6425  000122  20F4               	addwfc	prodh,w,c
  6426  000124  6EDA               	movwf	fsr2h,c
  6427  000126  C03D  FFDE         	movff	InterruptHandlerHigh@dd,postinc2
  6428  00012A  C03E  FFDD         	movff	InterruptHandlerHigh@dd+1,postdec2
  6429                           
  6430                           ; BSR set to: 0
  6431  00012E  2A3F               	incf	InterruptHandlerHigh@i,f,c
  6432  000130                     L3:
  6433                           
  6434                           ; BSR set to: 0
  6435  000130  0E09               	movlw	9
  6436  000132  643F               	cpfsgt	InterruptHandlerHigh@i,c
  6437  000134  D7D7               	goto	i2l5054
  6438  000136                     i2l354:
  6439                           
  6440                           ;picuno.c: 124: }
  6441                           ;picuno.c: 125: }
  6442                           ;picuno.c: 126: }
  6443                           ;picuno.c: 128: if(RCIF){
  6444  000136  AA9E               	btfss	3998,5,c	;volatile
  6445  000138  D029               	goto	i2l5088
  6446                           
  6447                           ;picuno.c: 129: uart1_rx_char = RCREG1;
  6448  00013A  CFAE F01F          	movff	4014,_uart1_rx_char	;volatile
  6449                           
  6450                           ;picuno.c: 131: if(uart1_rx_cnt < 95)
  6451  00013E  0E5F               	movlw	95
  6452  000140  5C20               	subwf	_uart1_rx_cnt,w,c
  6453  000142  B0D8               	btfsc	status,0,c
  6454  000144  D00D               	goto	i2l5076
  6455                           
  6456                           ;picuno.c: 132: {
  6457                           ;picuno.c: 133: uart1_rxbuf[uart1_rx_cnt++] = uart1_rx_char;
  6458  000146  5020               	movf	_uart1_rx_cnt,w,c
  6459  000148  0D01               	mullw	1
  6460  00014A  0101               	movlb	1	; () banked
  6461  00014C  0E00               	movlw	low _uart1_rxbuf
  6462  00014E  24F3               	addwf	prodl,w,c
  6463  000150  6ED9               	movwf	fsr2l,c
  6464  000152  0101               	movlb	1	; () banked
  6465  000154  0E01               	movlw	high _uart1_rxbuf
  6466  000156  20F4               	addwfc	prodh,w,c
  6467  000158  6EDA               	movwf	fsr2h,c
  6468  00015A  C01F  FFDF         	movff	_uart1_rx_char,indf2
  6469                           
  6470                           ; BSR set to: 1
  6471  00015E  2A20               	incf	_uart1_rx_cnt,f,c
  6472  000160                     i2l5076:
  6473                           
  6474                           ;picuno.c: 134: }
  6475                           ;picuno.c: 135: uart1_rxbuf[uart1_rx_cnt]=0x00;
  6476  000160  5020               	movf	_uart1_rx_cnt,w,c
  6477  000162  0D01               	mullw	1
  6478  000164  0101               	movlb	1	; () banked
  6479  000166  0E00               	movlw	low _uart1_rxbuf
  6480  000168  24F3               	addwf	prodl,w,c
  6481  00016A  6ED9               	movwf	fsr2l,c
  6482  00016C  0101               	movlb	1	; () banked
  6483  00016E  0E01               	movlw	high _uart1_rxbuf
  6484  000170  20F4               	addwfc	prodh,w,c
  6485  000172  6EDA               	movwf	fsr2h,c
  6486  000174  0E00               	movlw	0
  6487  000176  6EDF               	movwf	indf2,c
  6488                           
  6489                           ; BSR set to: 1
  6490                           ;picuno.c: 136: if(uart1_rx_char==0x0D) uart1_cr_cnt++;
  6491  000178  501F               	movf	_uart1_rx_char,w,c
  6492  00017A  0A0D               	xorlw	13
  6493  00017C  B4D8               	btfsc	status,2,c
  6494                           
  6495                           ; BSR set to: 1
  6496  00017E  2A1D               	incf	_uart1_cr_cnt,f,c
  6497                           
  6498                           ; BSR set to: 1
  6499                           ;picuno.c: 137: if(uart1_rx_char==0x0A) uart1_lf_cnt++;
  6500                           
  6501                           ; BSR set to: 1
  6502  000180  501F               	movf	_uart1_rx_char,w,c
  6503  000182  0A0A               	xorlw	10
  6504  000184  B4D8               	btfsc	status,2,c
  6505                           
  6506                           ; BSR set to: 1
  6507  000186  2A1E               	incf	_uart1_lf_cnt,f,c
  6508                           
  6509                           ; BSR set to: 1
  6510                           ;picuno.c: 138: TmrRxd1=10;
  6511                           
  6512                           ; BSR set to: 1
  6513  000188  0E0A               	movlw	10
  6514  00018A  6E04               	movwf	_TmrRxd1,c
  6515  00018C                     i2l5088:
  6516                           
  6517                           ;picuno.c: 139: }
  6518                           ;picuno.c: 141: if(TXIE && TXIF)
  6519  00018C  B89D               	btfsc	3997,4,c	;volatile
  6520  00018E  A89E               	btfss	3998,4,c	;volatile
  6521  000190  D019               	goto	i2l5108
  6522                           
  6523                           ;picuno.c: 142: {
  6524                           ;picuno.c: 143: TXREG = uart1_txbuf[uart1_tx_pos++];
  6525  000192  5024               	movf	_uart1_tx_pos,w,c
  6526  000194  0D01               	mullw	1
  6527  000196  0100               	movlb	0	; () banked
  6528  000198  0E60               	movlw	low _uart1_txbuf
  6529  00019A  24F3               	addwf	prodl,w,c
  6530  00019C  6ED9               	movwf	fsr2l,c
  6531  00019E  0100               	movlb	0	; () banked
  6532  0001A0  0E00               	movlw	high _uart1_txbuf
  6533  0001A2  20F4               	addwfc	prodh,w,c
  6534  0001A4  6EDA               	movwf	fsr2h,c
  6535  0001A6  50DF               	movf	indf2,w,c
  6536  0001A8  6EAD               	movwf	4013,c	;volatile
  6537                           
  6538                           ; BSR set to: 0
  6539  0001AA  2A24               	incf	_uart1_tx_pos,f,c
  6540                           
  6541                           ; BSR set to: 0
  6542                           ;picuno.c: 144: if(uart1_tx_pos == 32) uart1_tx_pos = 0;
  6543  0001AC  5024               	movf	_uart1_tx_pos,w,c
  6544  0001AE  0A20               	xorlw	32
  6545  0001B0  A4D8               	btfss	status,2,c
  6546  0001B2  D002               	goto	i2l5100
  6547                           
  6548                           ; BSR set to: 0
  6549  0001B4  0E00               	movlw	0
  6550  0001B6  6E24               	movwf	_uart1_tx_pos,c
  6551  0001B8                     i2l5100:
  6552                           
  6553                           ; BSR set to: 0
  6554                           ;picuno.c: 145: uart1_tx_cnt--;
  6555  0001B8  0623               	decf	_uart1_tx_cnt,f,c
  6556                           
  6557                           ; BSR set to: 0
  6558                           ;picuno.c: 146: if(!uart1_tx_cnt)
  6559  0001BA  6623               	tstfsz	_uart1_tx_cnt,c
  6560  0001BC  D003               	goto	i2l5108
  6561                           
  6562                           ; BSR set to: 0
  6563                           ;picuno.c: 147: {
  6564                           ;picuno.c: 148: uart1_tx_pos = 0;
  6565  0001BE  0E00               	movlw	0
  6566  0001C0  6E24               	movwf	_uart1_tx_pos,c
  6567                           
  6568                           ; BSR set to: 0
  6569                           ;picuno.c: 149: TXIE = 0;
  6570  0001C2  989D               	bcf	3997,4,c	;volatile
  6571  0001C4                     i2l5108:
  6572                           
  6573                           ;picuno.c: 150: }
  6574                           ;picuno.c: 151: }
  6575                           ;picuno.c: 155: if(RC2IF){
  6576  0001C4  AAA4               	btfss	4004,5,c	;volatile
  6577  0001C6  D02D               	goto	i2l5132
  6578                           
  6579                           ;picuno.c: 156: if(RCSTA2bits.OERR2){
  6580  0001C8  A271               	btfss	3953,1,c	;volatile
  6581  0001CA  D002               	goto	i2l377
  6582                           
  6583                           ;picuno.c: 157: RCSTA2bits.CREN2 = 0;
  6584  0001CC  9871               	bcf	3953,4,c	;volatile
  6585                           
  6586                           ;picuno.c: 158: RCSTA2bits.CREN2 = 1;
  6587  0001CE  8871               	bsf	3953,4,c	;volatile
  6588  0001D0                     i2l377:
  6589                           
  6590                           ;picuno.c: 159: }
  6591                           ;picuno.c: 160: uart2_rx_char = RCREG2;
  6592  0001D0  CF74 F027          	movff	3956,_uart2_rx_char	;volatile
  6593                           
  6594                           ;picuno.c: 162: if(uart2_rx_cnt < 95)
  6595  0001D4  0E5F               	movlw	95
  6596  0001D6  5C28               	subwf	_uart2_rx_cnt,w,c
  6597  0001D8  B0D8               	btfsc	status,0,c
  6598  0001DA  D00D               	goto	i2l5120
  6599                           
  6600                           ;picuno.c: 163: {
  6601                           ;picuno.c: 164: uart2_rxbuf[uart2_rx_cnt++] = uart2_rx_char;
  6602  0001DC  5028               	movf	_uart2_rx_cnt,w,c
  6603  0001DE  0D01               	mullw	1
  6604  0001E0  0101               	movlb	1	; () banked
  6605  0001E2  0E60               	movlw	low _uart2_rxbuf
  6606  0001E4  24F3               	addwf	prodl,w,c
  6607  0001E6  6ED9               	movwf	fsr2l,c
  6608  0001E8  0101               	movlb	1	; () banked
  6609  0001EA  0E01               	movlw	high _uart2_rxbuf
  6610  0001EC  20F4               	addwfc	prodh,w,c
  6611  0001EE  6EDA               	movwf	fsr2h,c
  6612  0001F0  C027  FFDF         	movff	_uart2_rx_char,indf2
  6613                           
  6614                           ; BSR set to: 1
  6615  0001F4  2A28               	incf	_uart2_rx_cnt,f,c
  6616  0001F6                     i2l5120:
  6617                           
  6618                           ;picuno.c: 165: }
  6619                           ;picuno.c: 166: uart2_rxbuf[uart2_rx_cnt]=0x00;
  6620  0001F6  5028               	movf	_uart2_rx_cnt,w,c
  6621  0001F8  0D01               	mullw	1
  6622  0001FA  0101               	movlb	1	; () banked
  6623  0001FC  0E60               	movlw	low _uart2_rxbuf
  6624  0001FE  24F3               	addwf	prodl,w,c
  6625  000200  6ED9               	movwf	fsr2l,c
  6626  000202  0101               	movlb	1	; () banked
  6627  000204  0E01               	movlw	high _uart2_rxbuf
  6628  000206  20F4               	addwfc	prodh,w,c
  6629  000208  6EDA               	movwf	fsr2h,c
  6630  00020A  0E00               	movlw	0
  6631  00020C  6EDF               	movwf	indf2,c
  6632                           
  6633                           ; BSR set to: 1
  6634                           ;picuno.c: 167: if(uart2_rx_char==0x0D) uart2_cr_cnt++;
  6635  00020E  5027               	movf	_uart2_rx_char,w,c
  6636  000210  0A0D               	xorlw	13
  6637  000212  B4D8               	btfsc	status,2,c
  6638                           
  6639                           ; BSR set to: 1
  6640  000214  2A25               	incf	_uart2_cr_cnt,f,c
  6641                           
  6642                           ; BSR set to: 1
  6643                           ;picuno.c: 168: if(uart2_rx_char==0x0A) uart2_lf_cnt++;
  6644                           
  6645                           ; BSR set to: 1
  6646  000216  5027               	movf	_uart2_rx_char,w,c
  6647  000218  0A0A               	xorlw	10
  6648  00021A  B4D8               	btfsc	status,2,c
  6649                           
  6650                           ; BSR set to: 1
  6651  00021C  2A26               	incf	_uart2_lf_cnt,f,c
  6652                           
  6653                           ; BSR set to: 1
  6654                           ;picuno.c: 169: TmrRxd2=10;
  6655                           
  6656                           ; BSR set to: 1
  6657  00021E  0E0A               	movlw	10
  6658  000220  6E05               	movwf	_TmrRxd2,c
  6659  000222                     i2l5132:
  6660                           
  6661                           ;picuno.c: 170: }
  6662                           ;picuno.c: 172: if(TX2IE && TX2IF)
  6663  000222  B8A3               	btfsc	4003,4,c	;volatile
  6664  000224  A8A4               	btfss	4004,4,c	;volatile
  6665  000226  D019               	goto	i2l384
  6666                           
  6667                           ;picuno.c: 173: {
  6668                           ;picuno.c: 174: TXREG2 = uart2_txbuf[uart2_tx_pos++];
  6669  000228  502C               	movf	_uart2_tx_pos,w,c
  6670  00022A  0D01               	mullw	1
  6671  00022C  0100               	movlb	0	; () banked
  6672  00022E  0E81               	movlw	low _uart2_txbuf
  6673  000230  24F3               	addwf	prodl,w,c
  6674  000232  6ED9               	movwf	fsr2l,c
  6675  000234  0100               	movlb	0	; () banked
  6676  000236  0E00               	movlw	high _uart2_txbuf
  6677  000238  20F4               	addwfc	prodh,w,c
  6678  00023A  6EDA               	movwf	fsr2h,c
  6679  00023C  50DF               	movf	indf2,w,c
  6680  00023E  6E73               	movwf	3955,c	;volatile
  6681                           
  6682                           ; BSR set to: 0
  6683  000240  2A2C               	incf	_uart2_tx_pos,f,c
  6684                           
  6685                           ; BSR set to: 0
  6686                           ;picuno.c: 175: if(uart2_tx_pos == 32) uart2_tx_pos = 0;
  6687  000242  502C               	movf	_uart2_tx_pos,w,c
  6688  000244  0A20               	xorlw	32
  6689  000246  A4D8               	btfss	status,2,c
  6690  000248  D002               	goto	i2l5144
  6691                           
  6692                           ; BSR set to: 0
  6693  00024A  0E00               	movlw	0
  6694  00024C  6E2C               	movwf	_uart2_tx_pos,c
  6695  00024E                     i2l5144:
  6696                           
  6697                           ; BSR set to: 0
  6698                           ;picuno.c: 176: uart2_tx_cnt--;
  6699  00024E  062B               	decf	_uart2_tx_cnt,f,c
  6700                           
  6701                           ; BSR set to: 0
  6702                           ;picuno.c: 177: if(!uart2_tx_cnt)
  6703  000250  662B               	tstfsz	_uart2_tx_cnt,c
  6704  000252  D003               	goto	i2l384
  6705                           
  6706                           ; BSR set to: 0
  6707                           ;picuno.c: 178: {
  6708                           ;picuno.c: 179: uart2_tx_pos = 0;
  6709  000254  0E00               	movlw	0
  6710  000256  6E2C               	movwf	_uart2_tx_pos,c
  6711                           
  6712                           ; BSR set to: 0
  6713                           ;picuno.c: 180: TX2IE = 0;
  6714  000258  98A3               	bcf	4003,4,c	;volatile
  6715  00025A                     i2l384:
  6716  00025A  C03C  FFF5         	movff	??_InterruptHandlerHigh+13,tablat
  6717  00025E  C03B  FFF8         	movff	??_InterruptHandlerHigh+12,tblptru
  6718  000262  C03A  FFF7         	movff	??_InterruptHandlerHigh+11,tblptrh
  6719  000266  C039  FFF6         	movff	??_InterruptHandlerHigh+10,tblptrl
  6720  00026A  C038  FFF4         	movff	??_InterruptHandlerHigh+9,prodh
  6721  00026E  C037  FFF3         	movff	??_InterruptHandlerHigh+8,prodl
  6722  000272  C036  FFDA         	movff	??_InterruptHandlerHigh+7,fsr2h
  6723  000276  C035  FFD9         	movff	??_InterruptHandlerHigh+6,fsr2l
  6724  00027A  C034  FFE2         	movff	??_InterruptHandlerHigh+5,fsr1h
  6725  00027E  C033  FFE1         	movff	??_InterruptHandlerHigh+4,fsr1l
  6726  000282  C032  FFEA         	movff	??_InterruptHandlerHigh+3,fsr0h
  6727  000286  C031  FFE9         	movff	??_InterruptHandlerHigh+2,fsr0l
  6728  00028A  C030  FFFB         	movff	??_InterruptHandlerHigh+1,pclatu
  6729  00028E  C02F  FFFA         	movff	??_InterruptHandlerHigh,pclath
  6730  000292  0011               	retfie		f
  6731  000294                     __end_of_InterruptHandlerHigh:
  6732                           	opt stack 0
  6733                           pclatu	equ	0xFFB
  6734                           pclath	equ	0xFFA
  6735                           tblptru	equ	0xFF8
  6736                           tblptrh	equ	0xFF7
  6737                           tblptrl	equ	0xFF6
  6738                           tablat	equ	0xFF5
  6739                           prodh	equ	0xFF4
  6740                           prodl	equ	0xFF3
  6741                           intcon	equ	0xFF2
  6742                           intcon2	equ	0xFF1
  6743                           intcon3	equ	0xFF0
  6744                           indf0	equ	0xFEF
  6745                           postinc0	equ	0xFEE
  6746                           fsr0h	equ	0xFEA
  6747                           fsr0l	equ	0xFE9
  6748                           wreg	equ	0xFE8
  6749                           postdec1	equ	0xFE5
  6750                           fsr1h	equ	0xFE2
  6751                           fsr1l	equ	0xFE1
  6752                           indf2	equ	0xFDF
  6753                           postinc2	equ	0xFDE
  6754                           postdec2	equ	0xFDD
  6755                           fsr2h	equ	0xFDA
  6756                           fsr2l	equ	0xFD9
  6757                           status	equ	0xFD8
  6758                           
  6759 ;; *************** function _INT2_ISR *****************
  6760 ;; Defined at:
  6761 ;;		line 3187 in file "picuno.c"
  6762 ;; Parameters:    Size  Location     Type
  6763 ;;		None
  6764 ;; Auto vars:     Size  Location     Type
  6765 ;;		None
  6766 ;; Return value:  Size  Location     Type
  6767 ;;		None               void
  6768 ;; Registers used:
  6769 ;;		wreg, status,2, status,0, cstack
  6770 ;; Tracked objects:
  6771 ;;		On entry : 0/0
  6772 ;;		On exit  : 0/0
  6773 ;;		Unchanged: 0/0
  6774 ;; Data sizes:     COMRAM   BANK0   BANK1   BANK2   BANK3   BANK4   BANK5
  6775 ;;      Params:         0       0       0       0       0       0       0
  6776 ;;      Locals:         0       0       0       0       0       0       0
  6777 ;;      Temps:          0       0       0       0       0       0       0
  6778 ;;      Totals:         0       0       0       0       0       0       0
  6779 ;;Total ram usage:        0 bytes
  6780 ;; Hardware stack levels used:    1
  6781 ;; Hardware stack levels required when called:    1
  6782 ;; This function calls:
  6783 ;;		_INT2_CallBack
  6784 ;; This function is called by:
  6785 ;;		_InterruptHandlerHigh
  6786 ;; This function uses a non-reentrant model
  6787 ;;
  6788                           
  6789                           	psect	text27
  6790  0018AA                     __ptext27:
  6791                           	opt stack 0
  6792  0018AA                     _INT2_ISR:
  6793                           	opt stack 23
  6794                           
  6795                           ;picuno.c: 3189: (INTCON3bits.INT2IF = 0);
  6796                           
  6797                           ;incstack = 0
  6798  0018AA  92F0               	bcf	intcon3,1,c	;volatile
  6799                           
  6800                           ;picuno.c: 3192: INT2_CallBack();
  6801  0018AC  EC66  F00C         	call	_INT2_CallBack	;wreg free
  6802  0018B0  0012               	return	
  6803  0018B2                     __end_of_INT2_ISR:
  6804                           	opt stack 0
  6805                           pclatu	equ	0xFFB
  6806                           pclath	equ	0xFFA
  6807                           tblptru	equ	0xFF8
  6808                           tblptrh	equ	0xFF7
  6809                           tblptrl	equ	0xFF6
  6810                           tablat	equ	0xFF5
  6811                           prodh	equ	0xFF4
  6812                           prodl	equ	0xFF3
  6813                           intcon	equ	0xFF2
  6814                           intcon2	equ	0xFF1
  6815                           intcon3	equ	0xFF0
  6816                           indf0	equ	0xFEF
  6817                           postinc0	equ	0xFEE
  6818                           fsr0h	equ	0xFEA
  6819                           fsr0l	equ	0xFE9
  6820                           wreg	equ	0xFE8
  6821                           postdec1	equ	0xFE5
  6822                           fsr1h	equ	0xFE2
  6823                           fsr1l	equ	0xFE1
  6824                           indf2	equ	0xFDF
  6825                           postinc2	equ	0xFDE
  6826                           postdec2	equ	0xFDD
  6827                           fsr2h	equ	0xFDA
  6828                           fsr2l	equ	0xFD9
  6829                           status	equ	0xFD8
  6830                           
  6831 ;; *************** function _INT2_CallBack *****************
  6832 ;; Defined at:
  6833 ;;		line 3196 in file "picuno.c"
  6834 ;; Parameters:    Size  Location     Type
  6835 ;;		None
  6836 ;; Auto vars:     Size  Location     Type
  6837 ;;		None
  6838 ;; Return value:  Size  Location     Type
  6839 ;;		None               void
  6840 ;; Registers used:
  6841 ;;		wreg, status,2, status,0
  6842 ;; Tracked objects:
  6843 ;;		On entry : 0/0
  6844 ;;		On exit  : 0/0
  6845 ;;		Unchanged: 0/0
  6846 ;; Data sizes:     COMRAM   BANK0   BANK1   BANK2   BANK3   BANK4   BANK5
  6847 ;;      Params:         0       0       0       0       0       0       0
  6848 ;;      Locals:         0       0       0       0       0       0       0
  6849 ;;      Temps:          0       0       0       0       0       0       0
  6850 ;;      Totals:         0       0       0       0       0       0       0
  6851 ;;Total ram usage:        0 bytes
  6852 ;; Hardware stack levels used:    1
  6853 ;; This function calls:
  6854 ;;		Nothing
  6855 ;; This function is called by:
  6856 ;;		_INT2_ISR
  6857 ;; This function uses a non-reentrant model
  6858 ;;
  6859                           
  6860                           	psect	text28
  6861  0018CC                     __ptext28:
  6862                           	opt stack 0
  6863  0018CC                     _INT2_CallBack:
  6864                           	opt stack 23
  6865                           
  6866                           ;incstack = 0
  6867  0018CC  0012               	return	
  6868  0018CE                     __end_of_INT2_CallBack:
  6869                           	opt stack 0
  6870                           pclatu	equ	0xFFB
  6871                           pclath	equ	0xFFA
  6872                           tblptru	equ	0xFF8
  6873                           tblptrh	equ	0xFF7
  6874                           tblptrl	equ	0xFF6
  6875                           tablat	equ	0xFF5
  6876                           prodh	equ	0xFF4
  6877                           prodl	equ	0xFF3
  6878                           intcon	equ	0xFF2
  6879                           intcon2	equ	0xFF1
  6880                           intcon3	equ	0xFF0
  6881                           indf0	equ	0xFEF
  6882                           postinc0	equ	0xFEE
  6883                           fsr0h	equ	0xFEA
  6884                           fsr0l	equ	0xFE9
  6885                           wreg	equ	0xFE8
  6886                           postdec1	equ	0xFE5
  6887                           fsr1h	equ	0xFE2
  6888                           fsr1l	equ	0xFE1
  6889                           indf2	equ	0xFDF
  6890                           postinc2	equ	0xFDE
  6891                           postdec2	equ	0xFDD
  6892                           fsr2h	equ	0xFDA
  6893                           fsr2l	equ	0xFD9
  6894                           status	equ	0xFD8
  6895                           
  6896 ;; *************** function _INT1_ISR *****************
  6897 ;; Defined at:
  6898 ;;		line 3166 in file "picuno.c"
  6899 ;; Parameters:    Size  Location     Type
  6900 ;;		None
  6901 ;; Auto vars:     Size  Location     Type
  6902 ;;		None
  6903 ;; Return value:  Size  Location     Type
  6904 ;;		None               void
  6905 ;; Registers used:
  6906 ;;		wreg, status,2, status,0, cstack
  6907 ;; Tracked objects:
  6908 ;;		On entry : 0/0
  6909 ;;		On exit  : 0/0
  6910 ;;		Unchanged: 0/0
  6911 ;; Data sizes:     COMRAM   BANK0   BANK1   BANK2   BANK3   BANK4   BANK5
  6912 ;;      Params:         0       0       0       0       0       0       0
  6913 ;;      Locals:         0       0       0       0       0       0       0
  6914 ;;      Temps:          0       0       0       0       0       0       0
  6915 ;;      Totals:         0       0       0       0       0       0       0
  6916 ;;Total ram usage:        0 bytes
  6917 ;; Hardware stack levels used:    1
  6918 ;; Hardware stack levels required when called:    1
  6919 ;; This function calls:
  6920 ;;		_INT1_CallBack
  6921 ;; This function is called by:
  6922 ;;		_InterruptHandlerHigh
  6923 ;; This function uses a non-reentrant model
  6924 ;;
  6925                           
  6926                           	psect	text29
  6927  0018B2                     __ptext29:
  6928                           	opt stack 0
  6929  0018B2                     _INT1_ISR:
  6930                           	opt stack 23
  6931                           
  6932                           ;picuno.c: 3168: (INTCON3bits.INT1IF = 0);
  6933                           
  6934                           ;incstack = 0
  6935  0018B2  90F0               	bcf	intcon3,0,c	;volatile
  6936                           
  6937                           ;picuno.c: 3171: INT1_CallBack();
  6938  0018B4  EC67  F00C         	call	_INT1_CallBack	;wreg free
  6939  0018B8  0012               	return	
  6940  0018BA                     __end_of_INT1_ISR:
  6941                           	opt stack 0
  6942                           pclatu	equ	0xFFB
  6943                           pclath	equ	0xFFA
  6944                           tblptru	equ	0xFF8
  6945                           tblptrh	equ	0xFF7
  6946                           tblptrl	equ	0xFF6
  6947                           tablat	equ	0xFF5
  6948                           prodh	equ	0xFF4
  6949                           prodl	equ	0xFF3
  6950                           intcon	equ	0xFF2
  6951                           intcon2	equ	0xFF1
  6952                           intcon3	equ	0xFF0
  6953                           indf0	equ	0xFEF
  6954                           postinc0	equ	0xFEE
  6955                           fsr0h	equ	0xFEA
  6956                           fsr0l	equ	0xFE9
  6957                           wreg	equ	0xFE8
  6958                           postdec1	equ	0xFE5
  6959                           fsr1h	equ	0xFE2
  6960                           fsr1l	equ	0xFE1
  6961                           indf2	equ	0xFDF
  6962                           postinc2	equ	0xFDE
  6963                           postdec2	equ	0xFDD
  6964                           fsr2h	equ	0xFDA
  6965                           fsr2l	equ	0xFD9
  6966                           status	equ	0xFD8
  6967                           
  6968 ;; *************** function _INT1_CallBack *****************
  6969 ;; Defined at:
  6970 ;;		line 3174 in file "picuno.c"
  6971 ;; Parameters:    Size  Location     Type
  6972 ;;		None
  6973 ;; Auto vars:     Size  Location     Type
  6974 ;;		None
  6975 ;; Return value:  Size  Location     Type
  6976 ;;		None               void
  6977 ;; Registers used:
  6978 ;;		wreg, status,2, status,0
  6979 ;; Tracked objects:
  6980 ;;		On entry : 0/0
  6981 ;;		On exit  : 0/0
  6982 ;;		Unchanged: 0/0
  6983 ;; Data sizes:     COMRAM   BANK0   BANK1   BANK2   BANK3   BANK4   BANK5
  6984 ;;      Params:         0       0       0       0       0       0       0
  6985 ;;      Locals:         0       0       0       0       0       0       0
  6986 ;;      Temps:          0       0       0       0       0       0       0
  6987 ;;      Totals:         0       0       0       0       0       0       0
  6988 ;;Total ram usage:        0 bytes
  6989 ;; Hardware stack levels used:    1
  6990 ;; This function calls:
  6991 ;;		Nothing
  6992 ;; This function is called by:
  6993 ;;		_INT1_ISR
  6994 ;; This function uses a non-reentrant model
  6995 ;;
  6996                           
  6997                           	psect	text30
  6998  0018CE                     __ptext30:
  6999                           	opt stack 0
  7000  0018CE                     _INT1_CallBack:
  7001                           	opt stack 23
  7002                           
  7003                           ;incstack = 0
  7004  0018CE  0012               	return	
  7005  0018D0                     __end_of_INT1_CallBack:
  7006                           	opt stack 0
  7007                           pclatu	equ	0xFFB
  7008                           pclath	equ	0xFFA
  7009                           tblptru	equ	0xFF8
  7010                           tblptrh	equ	0xFF7
  7011                           tblptrl	equ	0xFF6
  7012                           tablat	equ	0xFF5
  7013                           prodh	equ	0xFF4
  7014                           prodl	equ	0xFF3
  7015                           intcon	equ	0xFF2
  7016                           intcon2	equ	0xFF1
  7017                           intcon3	equ	0xFF0
  7018                           indf0	equ	0xFEF
  7019                           postinc0	equ	0xFEE
  7020                           fsr0h	equ	0xFEA
  7021                           fsr0l	equ	0xFE9
  7022                           wreg	equ	0xFE8
  7023                           postdec1	equ	0xFE5
  7024                           fsr1h	equ	0xFE2
  7025                           fsr1l	equ	0xFE1
  7026                           indf2	equ	0xFDF
  7027                           postinc2	equ	0xFDE
  7028                           postdec2	equ	0xFDD
  7029                           fsr2h	equ	0xFDA
  7030                           fsr2l	equ	0xFD9
  7031                           status	equ	0xFD8
  7032                           
  7033 ;; *************** function _INT0_ISR *****************
  7034 ;; Defined at:
  7035 ;;		line 3145 in file "picuno.c"
  7036 ;; Parameters:    Size  Location     Type
  7037 ;;		None
  7038 ;; Auto vars:     Size  Location     Type
  7039 ;;		None
  7040 ;; Return value:  Size  Location     Type
  7041 ;;		None               void
  7042 ;; Registers used:
  7043 ;;		wreg, status,2, status,0, cstack
  7044 ;; Tracked objects:
  7045 ;;		On entry : 0/0
  7046 ;;		On exit  : 0/0
  7047 ;;		Unchanged: 0/0
  7048 ;; Data sizes:     COMRAM   BANK0   BANK1   BANK2   BANK3   BANK4   BANK5
  7049 ;;      Params:         0       0       0       0       0       0       0
  7050 ;;      Locals:         0       0       0       0       0       0       0
  7051 ;;      Temps:          0       0       0       0       0       0       0
  7052 ;;      Totals:         0       0       0       0       0       0       0
  7053 ;;Total ram usage:        0 bytes
  7054 ;; Hardware stack levels used:    1
  7055 ;; Hardware stack levels required when called:    1
  7056 ;; This function calls:
  7057 ;;		_INT0_CallBack
  7058 ;; This function is called by:
  7059 ;;		_InterruptHandlerHigh
  7060 ;; This function uses a non-reentrant model
  7061 ;;
  7062                           
  7063                           	psect	text31
  7064  0018BA                     __ptext31:
  7065                           	opt stack 0
  7066  0018BA                     _INT0_ISR:
  7067                           	opt stack 23
  7068                           
  7069                           ;picuno.c: 3147: (INTCONbits.INT0IF = 0);
  7070                           
  7071                           ;incstack = 0
  7072  0018BA  92F2               	bcf	intcon,1,c	;volatile
  7073                           
  7074                           ;picuno.c: 3150: INT0_CallBack();
  7075  0018BC  EC68  F00C         	call	_INT0_CallBack	;wreg free
  7076  0018C0  0012               	return	
  7077  0018C2                     __end_of_INT0_ISR:
  7078                           	opt stack 0
  7079                           pclatu	equ	0xFFB
  7080                           pclath	equ	0xFFA
  7081                           tblptru	equ	0xFF8
  7082                           tblptrh	equ	0xFF7
  7083                           tblptrl	equ	0xFF6
  7084                           tablat	equ	0xFF5
  7085                           prodh	equ	0xFF4
  7086                           prodl	equ	0xFF3
  7087                           intcon	equ	0xFF2
  7088                           intcon2	equ	0xFF1
  7089                           intcon3	equ	0xFF0
  7090                           indf0	equ	0xFEF
  7091                           postinc0	equ	0xFEE
  7092                           fsr0h	equ	0xFEA
  7093                           fsr0l	equ	0xFE9
  7094                           wreg	equ	0xFE8
  7095                           postdec1	equ	0xFE5
  7096                           fsr1h	equ	0xFE2
  7097                           fsr1l	equ	0xFE1
  7098                           indf2	equ	0xFDF
  7099                           postinc2	equ	0xFDE
  7100                           postdec2	equ	0xFDD
  7101                           fsr2h	equ	0xFDA
  7102                           fsr2l	equ	0xFD9
  7103                           status	equ	0xFD8
  7104                           
  7105 ;; *************** function _INT0_CallBack *****************
  7106 ;; Defined at:
  7107 ;;		line 3153 in file "picuno.c"
  7108 ;; Parameters:    Size  Location     Type
  7109 ;;		None
  7110 ;; Auto vars:     Size  Location     Type
  7111 ;;		None
  7112 ;; Return value:  Size  Location     Type
  7113 ;;		None               void
  7114 ;; Registers used:
  7115 ;;		wreg, status,2, status,0
  7116 ;; Tracked objects:
  7117 ;;		On entry : 0/0
  7118 ;;		On exit  : 0/0
  7119 ;;		Unchanged: 0/0
  7120 ;; Data sizes:     COMRAM   BANK0   BANK1   BANK2   BANK3   BANK4   BANK5
  7121 ;;      Params:         0       0       0       0       0       0       0
  7122 ;;      Locals:         0       0       0       0       0       0       0
  7123 ;;      Temps:          0       0       0       0       0       0       0
  7124 ;;      Totals:         0       0       0       0       0       0       0
  7125 ;;Total ram usage:        0 bytes
  7126 ;; Hardware stack levels used:    1
  7127 ;; This function calls:
  7128 ;;		Nothing
  7129 ;; This function is called by:
  7130 ;;		_INT0_ISR
  7131 ;; This function uses a non-reentrant model
  7132 ;;
  7133                           
  7134                           	psect	text32
  7135  0018D0                     __ptext32:
  7136                           	opt stack 0
  7137  0018D0                     _INT0_CallBack:
  7138                           	opt stack 23
  7139                           
  7140                           ;incstack = 0
  7141  0018D0  0012               	return	
  7142  0018D2                     __end_of_INT0_CallBack:
  7143                           	opt stack 0
  7144                           pclatu	equ	0xFFB
  7145                           pclath	equ	0xFFA
  7146                           tblptru	equ	0xFF8
  7147                           tblptrh	equ	0xFF7
  7148                           tblptrl	equ	0xFF6
  7149                           tablat	equ	0xFF5
  7150                           prodh	equ	0xFF4
  7151                           prodl	equ	0xFF3
  7152                           intcon	equ	0xFF2
  7153                           intcon2	equ	0xFF1
  7154                           intcon3	equ	0xFF0
  7155                           indf0	equ	0xFEF
  7156                           postinc0	equ	0xFEE
  7157                           fsr0h	equ	0xFEA
  7158                           fsr0l	equ	0xFE9
  7159                           wreg	equ	0xFE8
  7160                           postdec1	equ	0xFE5
  7161                           fsr1h	equ	0xFE2
  7162                           fsr1l	equ	0xFE1
  7163                           indf2	equ	0xFDF
  7164                           postinc2	equ	0xFDE
  7165                           postdec2	equ	0xFDD
  7166                           fsr2h	equ	0xFDA
  7167                           fsr2l	equ	0xFD9
  7168                           status	equ	0xFD8
  7169                           pclatu	equ	0xFFB
  7170                           pclath	equ	0xFFA
  7171                           tblptru	equ	0xFF8
  7172                           tblptrh	equ	0xFF7
  7173                           tblptrl	equ	0xFF6
  7174                           tablat	equ	0xFF5
  7175                           prodh	equ	0xFF4
  7176                           prodl	equ	0xFF3
  7177                           intcon	equ	0xFF2
  7178                           intcon2	equ	0xFF1
  7179                           intcon3	equ	0xFF0
  7180                           indf0	equ	0xFEF
  7181                           postinc0	equ	0xFEE
  7182                           fsr0h	equ	0xFEA
  7183                           fsr0l	equ	0xFE9
  7184                           wreg	equ	0xFE8
  7185                           postdec1	equ	0xFE5
  7186                           fsr1h	equ	0xFE2
  7187                           fsr1l	equ	0xFE1
  7188                           indf2	equ	0xFDF
  7189                           postinc2	equ	0xFDE
  7190                           postdec2	equ	0xFDD
  7191                           fsr2h	equ	0xFDA
  7192                           fsr2l	equ	0xFD9
  7193                           status	equ	0xFD8
  7194                           
  7195                           	psect	rparam
  7196  0000                     pclatu	equ	0xFFB
  7197                           pclath	equ	0xFFA
  7198                           tblptru	equ	0xFF8
  7199                           tblptrh	equ	0xFF7
  7200                           tblptrl	equ	0xFF6
  7201                           tablat	equ	0xFF5
  7202                           prodh	equ	0xFF4
  7203                           prodl	equ	0xFF3
  7204                           intcon	equ	0xFF2
  7205                           intcon2	equ	0xFF1
  7206                           intcon3	equ	0xFF0
  7207                           indf0	equ	0xFEF
  7208                           postinc0	equ	0xFEE
  7209                           fsr0h	equ	0xFEA
  7210                           fsr0l	equ	0xFE9
  7211                           wreg	equ	0xFE8
  7212                           postdec1	equ	0xFE5
  7213                           fsr1h	equ	0xFE2
  7214                           fsr1l	equ	0xFE1
  7215                           indf2	equ	0xFDF
  7216                           postinc2	equ	0xFDE
  7217                           postdec2	equ	0xFDD
  7218                           fsr2h	equ	0xFDA
  7219                           fsr2l	equ	0xFD9
  7220                           status	equ	0xFD8


Data Sizes:
    Strings     36
    Constant    0
    Data        4
    BSS         379
    Persistent  0
    Stack       0

Auto Spaces:
    Space          Size  Autos    Used
    COMRAM           95     28      78
    BANK0           160     17     158
    BANK1           256      0     192
    BANK2           256      0       0
    BANK3           256      0       0
    BANK4           256      0       0
    BANK5           256      0       0

Pointer List with Targets:

    sprintf@f	PTR const unsigned char  size(2) Largest target is 17
		 -> STR_2(CODE[17]), 

    sprintf@sp	PTR unsigned char  size(2) Largest target is 32
		 -> buf(BANK0[32]), 

    sprintf@ap	PTR void [1] size(2) Largest target is 2
		 -> ?_sprintf(COMRAM[2]), 

    S3470$_cp	PTR const unsigned char  size(2) Largest target is 0

    _val._str._cp	PTR const unsigned char  size(2) Largest target is 0

    INT2_InterruptHandler	PTR FTN()void  size(2) Largest target is 0
		 -> Absolute function(), 

    INT1_InterruptHandler	PTR FTN()void  size(2) Largest target is 0
		 -> Absolute function(), 

    INT0_InterruptHandler	PTR FTN()void  size(2) Largest target is 0
		 -> Absolute function(), 

    Serial2_println@str	PTR const unsigned char  size(2) Largest target is 32
		 -> buf(BANK0[32]), STR_1(CODE[19]), 


Critical Paths under _main in COMRAM

    _pwm_on->_pinMode
    _Serial2_begin->_uart_brg_set
    _uart_brg_set->___lldiv
    _loop->_sprintf
    _timerSet->___lldiv
    _disable_motor->_pinMode
    _digitalWrite->_digitalRead
    _enable_motor->_pinMode
    _pinMode->_analogInput
    _Serial2_println->_Serial2_putc

Critical Paths under _InterruptHandlerHigh in COMRAM

    None.

Critical Paths under _main in BANK0

    _setup->_Serial2_begin
    _Serial2_begin->_uart_brg_set
    _uart_brg_set->___lldiv
    _loop->_timerSet
    _timerSet->___lldiv

Critical Paths under _InterruptHandlerHigh in BANK0

    None.

Critical Paths under _main in BANK1

    None.

Critical Paths under _InterruptHandlerHigh in BANK1

    None.

Critical Paths under _main in BANK2

    None.

Critical Paths under _InterruptHandlerHigh in BANK2

    None.

Critical Paths under _main in BANK3

    None.

Critical Paths under _InterruptHandlerHigh in BANK3

    None.

Critical Paths under _main in BANK4

    None.

Critical Paths under _InterruptHandlerHigh in BANK4

    None.

Critical Paths under _main in BANK5

    None.

Critical Paths under _InterruptHandlerHigh in BANK5

    None.

Call Graph Tables:

 ---------------------------------------------------------------------------------
 (Depth) Function   	        Calls       Base Space   Used Autos Params    Refs
 ---------------------------------------------------------------------------------
 (0) _main                                                 0     0      0   56604
                               _init
                               _loop
                              _setup
                               _sync
                               _task
 ---------------------------------------------------------------------------------
 (1) _task                                                 0     0      0       0
 ---------------------------------------------------------------------------------
 (1) _sync                                                 0     0      0       0
 ---------------------------------------------------------------------------------
 (1) _setup                                                0     0      0   27521
                      _Serial2_begin
                    _Serial2_println
                        _digitalRead
                       _digitalWrite
                      _disable_motor
                            _pinMode
                             _pwm_on
                            _pwm_out
 ---------------------------------------------------------------------------------
 (2) _pwm_on                                               0     0      0    6117
                            _pinMode
 ---------------------------------------------------------------------------------
 (2) _Serial2_begin                                        4     0      4    1669
                                             13 BANK0      4     0      4
                       _uart_brg_set
 ---------------------------------------------------------------------------------
 (3) _uart_brg_set                                        11     7      4    1561
                                             25 COMRAM     3     3      0
                                              5 BANK0      8     4      4
                            ___lldiv
 ---------------------------------------------------------------------------------
 (1) _loop                                                 2     2      0   29015
                                              9 BANK0      2     2      0
                  _Serial2_available
                    _Serial2_println
                       _Serial2_read
                              _delay
                        _digitalRead
                       _digitalWrite
                       _enable_motor
                            _pwm_out
                            _sprintf
                               _stop
                           _timerSet
                            _timerUp
 ---------------------------------------------------------------------------------
 (2) _timerUp                                              1     1      0      62
                                             17 COMRAM     1     1      0
 ---------------------------------------------------------------------------------
 (2) _timerSet                                             5     1      4    1215
                                             25 COMRAM     1     1      0
                                              5 BANK0      4     0      4
                            ___lldiv
 ---------------------------------------------------------------------------------
 (4) ___lldiv                                             13     5      8    1011
                                             17 COMRAM     8     0      8
                                              0 BANK0      5     5      0
 ---------------------------------------------------------------------------------
 (2) _stop                                                 0     0      0   12617
                              _delay
                       _digitalWrite
                      _disable_motor
 ---------------------------------------------------------------------------------
 (2) _disable_motor                                        0     0      0    6117
                            _pinMode
 ---------------------------------------------------------------------------------
 (2) _digitalWrite                                         2     1      1    5813
                                             19 COMRAM     2     1      1
                        _digitalRead (ARG)
 ---------------------------------------------------------------------------------
 (3) _delay                                                4     2      2     687
                                             17 COMRAM     4     2      2
 ---------------------------------------------------------------------------------
 (2) _sprintf                                             16    10      6     457
                                             17 COMRAM    10     4      6
 ---------------------------------------------------------------------------------
 (2) _pwm_out                                              3     1      2    1172
                                             17 COMRAM     3     1      2
 ---------------------------------------------------------------------------------
 (2) _enable_motor                                         0     0      0    6117
                            _pinMode
 ---------------------------------------------------------------------------------
 (3) _pinMode                                              2     1      1    6117
                                             21 COMRAM     2     1      1
                        _analogInput
 ---------------------------------------------------------------------------------
 (4) _analogInput                                          4     4      0      65
                                             17 COMRAM     4     4      0
 ---------------------------------------------------------------------------------
 (2) _digitalRead                                          2     2      0     170
                                             17 COMRAM     2     2      0
 ---------------------------------------------------------------------------------
 (2) _Serial2_read                                         1     1      0      37
                                             17 COMRAM     1     1      0
 ---------------------------------------------------------------------------------
 (2) _Serial2_println                                      2     0      2     346
                                             19 COMRAM     2     0      2
                       _Serial2_putc
 ---------------------------------------------------------------------------------
 (3) _Serial2_putc                                         2     2      0     127
                                             17 COMRAM     2     2      0
 ---------------------------------------------------------------------------------
 (2) _Serial2_available                                    0     0      0       0
 ---------------------------------------------------------------------------------
 (1) _init                                                 1     1      0      68
                                             17 COMRAM     1     1      0
 ---------------------------------------------------------------------------------
 Estimated maximum stack depth 4
 ---------------------------------------------------------------------------------
 (Depth) Function   	        Calls       Base Space   Used Autos Params    Refs
 ---------------------------------------------------------------------------------
 (6) _InterruptHandlerHigh                                17    17      0     136
                                              0 COMRAM    17    17      0
                           _INT0_ISR
                           _INT1_ISR
                           _INT2_ISR
 ---------------------------------------------------------------------------------
 (7) _INT2_ISR                                             0     0      0       0
                      _INT2_CallBack
 ---------------------------------------------------------------------------------
 (8) _INT2_CallBack                                        0     0      0       0
 ---------------------------------------------------------------------------------
 (7) _INT1_ISR                                             0     0      0       0
                      _INT1_CallBack
 ---------------------------------------------------------------------------------
 (8) _INT1_CallBack                                        0     0      0       0
 ---------------------------------------------------------------------------------
 (7) _INT0_ISR                                             0     0      0       0
                      _INT0_CallBack
 ---------------------------------------------------------------------------------
 (8) _INT0_CallBack                                        0     0      0       0
 ---------------------------------------------------------------------------------
 Estimated maximum stack depth 8
 ---------------------------------------------------------------------------------

 Call Graph Graphs:

 _main (ROOT)
   _init
   _loop
     _Serial2_available
     _Serial2_println
       _Serial2_putc
     _Serial2_read
     _delay
     _digitalRead
     _digitalWrite
       _digitalRead (ARG)
     _enable_motor
       _pinMode
         _analogInput
     _pwm_out
     _sprintf
     _stop
       _delay
       _digitalWrite
         _digitalRead (ARG)
       _disable_motor
         _pinMode
           _analogInput
     _timerSet
       ___lldiv
     _timerUp
   _setup
     _Serial2_begin
       _uart_brg_set
         ___lldiv
     _Serial2_println
       _Serial2_putc
     _digitalRead
     _digitalWrite
       _digitalRead (ARG)
     _disable_motor
       _pinMode
         _analogInput
     _pinMode
       _analogInput
     _pwm_on
       _pinMode
         _analogInput
     _pwm_out
   _sync
   _task

 _InterruptHandlerHigh (ROOT)
   _INT0_ISR
     _INT0_CallBack
   _INT1_ISR
     _INT1_CallBack
   _INT2_ISR
     _INT2_CallBack

 Address spaces:
Name               Size   Autos  Total    Cost      Usage
BIGRAM             5FF      0       0      16        0.0%
EEDATA             100      0       0       0        0.0%
BITBANK5           100      0       0      14        0.0%
BANK5              100      0       0      15        0.0%
BITBANK4           100      0       0      12        0.0%
BANK4              100      0       0      13        0.0%
BITBANK3           100      0       0      10        0.0%
BANK3              100      0       0      11        0.0%
BITBANK2           100      0       0       7        0.0%
BANK2              100      0       0       8        0.0%
BITBANK1           100      0       0       5        0.0%
BANK1              100      0      C0       6       75.0%
BITBANK0            A0      0       0       3        0.0%
BANK0               A0     11      9E       4       98.8%
BITCOMRAM           5F      0       0       0        0.0%
COMRAM              5F     1C      4E       1       82.1%
BITSFR_1             0      0       0      40        0.0%
SFR_1                0      0       0      40        0.0%
BITSFR               0      0       0      40        0.0%
SFR                  0      0       0      40        0.0%
STACK                0      0       0       2        0.0%
NULL                 0      0       0       0        0.0%
ABS                  0      0     1AC       9        0.0%
DATA                 0      0     1AC      17        0.0%
CODE                 0      0       0       0        0.0%


Microchip Technology PIC18 Macro Assembler V1.33 build 59893 
Symbol Table                                                                                   Sat Sep 26 00:13:17 2020

              ??_disable_motor 0046                    _SSPSTATbits 000FC7                            l501 0702  
                          l510 0738                            l503 0708                            l600 0954  
                          l520 0774                            l513 0750                            l610 0990  
                          l530 07B0                            l603 096C                            l523 078C  
                          l515 0756                            l620 09CC                            l540 07EC  
                          l508 0732                            l613 09A8                            l605 0972  
                          l533 07C8                            l525 0792                            l701 0B84  
                          l630 0A08                            l550 0828                            l518 076E  
                          l710 0BF0                            l702 0B90                            l623 09E4  
                          l615 09AE                            l543 0804                            l535 07CE  
                          l711 0BFC                            l703 0B9C                            l640 0A44  
                          l608 098A                            l560 0864                            l528 07AA  
                          l720 0C68                            l712 0C08                            l704 0BA8  
                          l633 0A20                            l625 09EA                            l553 0840  
                          l545 080A                            l721 0C74                            l713 0C14  
                          l705 0BB4                            l650 0A80                            l618 09C6  
                          l570 08A0                            l538 07E6                            l482 0684  
                          l474 0654                            l730 0CE0                            l722 0C80  
                          l714 0C20                            l706 0BC0                            l387 1490  
                          l643 0A5C                            l635 0A26                            l563 087C  
                          l555 0846                            l491 06BA                            l731 0CEC  
                          l723 0C8C                            l715 0C2C                            l707 0BCC  
                          l459 188E                            l660 102C                            l628 0A02  
                          l580 08DC                            l548 0822                            l484 068A  
                          l732 0CF8                            l724 0C98                            l716 0C38  
                          l708 0BD8                            l661 0E04                            l653 0A98  
                          l645 0A62                            l573 08B8                            l565 0882  
                          l477 065A                            l469 062A                            l733 0D04  
                          l725 0CA4                            l717 0C44                            l709 0BE4  
                          l670 0E5E                            l662 0E0E                            l638 0A3E  
                          l590 0918                            l558 085E                            l734 0D10  
                          l726 0CB0                            l718 0C50                            l671 0E68  
                          l663 0E18                            l583 08F4                            l575 08BE  
                          l727 0CBC                            l719 0C5C                            l680 0EC2  
                          l672 0E72                            l664 0E22                            l648 0A7A  
                          l568 089A                            l496 06E4                            l728 0CC8  
                          l681 0ECC                            l673 0E7C                            l665 0E2C  
                          l593 0930                            l585 08FA                            l489 06B4  
                          l729 0CD4                            l690 0F26                            l682 0ED6  
                          l674 0E86                            l666 0E36                            l578 08D6  
                          l498 06EA                            l691 0F30                            l683 0EE0  
                          l675 0E90                            l667 0E40                            l659 0DFA  
                          l595 0936                            l692 0F3A                            l684 0EEA  
                          l676 0E9A                            l668 0E4A                            l588 0912  
                          l693 0F44                            l685 0EF4                            l677 0EA4  
                          l669 0E54                            l694 0F4E                            l686 0EFE  
                          l678 0EAE                            l598 094E                            l687 0F08  
                          l679 0EB8                            l688 0F12                            l689 0F1C  
                          l699 0B78                            l971 115C                            _PR2 000FBB  
                          _buf 00CD                            prod 000FF3                            wreg 000FE8  
                _INT0_CallBack 18D0                  _INT1_CallBack 18CE                           l1119 173C  
                         l1069 169C                           l1413 11C2                           l6100 0760  
                         l1940 1472                           l6112 079C                           l6040 0664  
                         l6032 0642                           l6202 095E                           l6130 07F6  
                         l6106 077E                           l6220 09B8                           l6124 07D8  
                         l6052 0694                           l6044 0672                           l6028 0634  
                         l6300 17C2                           l6214 099A                           l6142 0832  
                         l6118 07BA                           l6302 17CA                           l6232 09F4  
                         l6208 097C                           l6160 088C                           l6136 0814  
                         l6064 06C4                           l6056 06A2                           l6330 166C  
                         l6250 0A4E                           l6226 09D6                           l6154 086E  
                         l6082 0712                           l6244 0A30                           l6172 08C8  
                         l6148 0850                           l6076 06F4                           l6068 06D2  
                         l6308 0D1C                           l6342 16A6                           l6262 0A8A  
                         l6238 0A12                           l6190 0922                           l6166 08AA  
                         l6094 0742                           l6086 0720                           l6502 1536  
                         l6440 1630                           l6256 0A6C                           l6184 0904  
                         l6512 155C                           l6280 1426                           l6360 15AC  
                         l4746 14DA                           l6354 0F58                           l6178 08E6  
                         l6506 154A                           l6514 157E                           l6436 1608  
                         l6196 0940                           l6268 0A9E                           l6516 1594  
                         l6276 1414                           l6372 1784                           l6524 13DA  
                         l6294 17AC                           l6278 1422                           l6480 175C  
                         l6288 1462                           l6552 11C4                           l6298 17BC  
                         l6378 17A4                           l6484 176A                           l6476 174E  
                         l6494 1528                           l6574 1208                           l6586 124A  
                         STR_1 0601                           STR_2 0614                           _LATA 000F89  
                         _LATB 000F8A                           _LATC 000F8B                           _LATD 000F8C  
                         _LATE 000F8D                           _PEIE 007F96                           u8010 1628  
                         _RCIE 007CED                           u8020 1650                           _RCIF 007CF5  
                         u8017 161E                           u8027 1646                           _RCIP 007CFD  
                         u7605 0BC8                           u6734 1836                           u7606 0BCA  
                         u6735 1832                           u7615 0BD4                           u7616 0BD6  
                         u7705 0C40                           u7625 0BE0                           u7545 0B80  
                         u7706 0C42                           u7626 0BE2                           u7546 0B82  
                         u7715 0C4C                           u7635 0BEC                           u7555 0B8C  
                         u7716 0C4E                           u7636 0BEE                           u7556 0B8E  
                         u7805 0CB8                           u7725 0C58                           u7645 0BF8  
                         u7565 0B98                           u7806 0CBA                           u7726 0C5A  
                         u7646 0BFA                           u7566 0B9A                           u7815 0CC4  
                         u7735 0C64                           u7655 0C04                           u7575 0BA4  
                         u7816 0CC6                           u7736 0C66                           u7656 0C06  
                         u7576 0BA6                           u7825 0CD0                           u7745 0C70  
                         u7665 0C10                           u7585 0BB0                           u7826 0CD2  
                         u7746 0C72                           u7666 0C12                           u7586 0BB2  
                         u7835 0CDC                           u7755 0C7C                           u7675 0C1C  
                         u7595 0BBC                           u7836 0CDE                           u7756 0C7E  
                         u7676 0C1E                           u7596 0BBE                           u7845 0CE8  
                         u7765 0C88                           u7685 0C28                           u7846 0CEA  
                         u7766 0C8A                           u7686 0C2A                           u7855 0CF4  
                         u7775 0C94                           u7695 0C34                           u7856 0CF6  
                         u7776 0C96                           u7696 0C36                           u7865 0D00  
                         u7785 0CA0                           u7866 0D02                           u7786 0CA2  
                         u7890 10C2                           u7875 0D0C                           u7795 0CAC  
                         u7876 0D0E                           u7796 0CAE                           u7885 0D18  
                         u7886 0D1A                           u7895 10B6                           _TMR2 000FBC  
        __end_of_Serial2_begin 17FE                           _TXIE 007CEC                           _TXIF 007CF4  
                         _TXIP 007CFC                  _INT2_CallBack 18CC                           _data 0006  
                         _main 1886                           _init 1484                           _loop 1166  
                         _task 18CA                           fsr0h 000FEA                           fsr1h 000FE2  
                         indf0 000FEF                           fsr0l 000FE9                           fsr2h 000FDA  
                         fsr1l 000FE1                           indf2 000FDF                           fsr2l 000FD9  
                         _stop 17FE                           _sync 189E                           pclat 000FFA  
                         prodh 000FF4                           prodl 000FF3                           start 0294  
             pwm_out@dutyValue 0040               __end_of_INT0_ISR 18C2               __end_of_INT1_ISR 18BA  
             __end_of_INT2_ISR 18B2                   _BAUDCON1bits 000FB8                   _BAUDCON2bits 000F70  
                        ?_main 002F                          ?_init 002F                          _EEADR 000FA9  
                        ?_loop 002F                          ?_task 002F                __end_of___lldiv 1484  
                        ?_stop 002F                          ?_sync 002F                          _T0CON 000FD5  
                        _T1CON 000FCD                          _T2CON 000FBA                          _RC2IE 007D1D  
                        _RC2IF 007D25                          _RC2IP 007D2D                          i2l351 0058  
                        i2l354 0136                          i2l355 0096                          i2l364 00D4  
                        i2l357 00A6                          i2l349 004C                          i2l384 025A  
                        i2l377 01D0                          _HMSec 004B                          _RCSTA 000FAB  
                        _TMR0H 000FD7                          _TMR1H 000FCF                          _TMR0L 000FD6  
                        _TMR1L 000FCE                          _TX2IE 007D1C                          _TX2IF 007D24  
                        _TX2IP 007D2C                 ?_INT0_CallBack 002F                          _TXREG 000FAD  
                        _TXSTA 000FAC                _Serial2_println 1606                          _Flags 0001  
                        _Task1 0002                          _Task2 00C0                          _Task3 00C1  
                        _Task4 00C2                          _Task5 00C3                          _Task6 00C4  
                        _Task7 00C5                          _Task8 00C6                 ?_INT1_CallBack 002F  
               _i2c_error_flag 00C7                          _delay 17A8                __end_of_pinMode 0B74  
                        _setup 133A                 ?_INT2_CallBack 002F                          init@i 0040  
                        tablat 000FF5                          loop@i 00F6                __end_of_timerUp 17A8  
              __end_of_pwm_out 1778                          status 000FD8                __end_of_sprintf 15A2  
         __size_of_analogInput 0022           __end_of_digitalWrite 0DF2                __initialization 16B6  
                 __end_of_main 189E                   __end_of_init 151E                   __end_of_loop 1286  
                 __end_of_task 18CC                   __end_of_stop 1824                   __end_of_sync 18AA  
                       ??_main 004B                         ??_init 0040                         ??_loop 004A  
                       ??_task 0040                         ??_stop 0046                         ??_sync 0040  
                __activetblptr 000002           __size_of_digitalRead 023E           __end_of_enable_motor 1886  
           Serial2_println@str 0042                         ?_delay 0040                         _ADCON0 000FC2  
                       _ADCON1 000FC1                         _ADCON2 000FC0                         _ADRESH 000FC4  
                       _ADRESL 000FC3                         _EEDATA 000FA8                         _CCPR1H 000FBF  
                       _CCPR2H 000F68                         _CCPR3H 000F5F                         _CCPR1L 000FBE  
                       _CCPR4H 000F59                         _CCPR2L 000F67                         _CCPR3L 000F5E  
                       _CCPR4L 000F58                         _EECON2 000FA7                         ?_setup 002F  
                       _ANSELA 000F38                         _ANSELB 000F39                         _ANSELC 000F3A  
                       _ANSELD 000F3B                         _ANSELE 000F3C                         _T1GCON 000FCC  
                       i2l5002 0062                         i2l5100 01B8                         i2l5120 01F6  
                       i2l5132 0222                         i2l5108 01C4                         i2l5062 0112  
                       i2l5054 00E4                         i2l5038 00C4                         i2l5144 024E  
                       i2l5076 0160                         i2l5088 018C                         _RCREG1 000FAE  
                       _RCREG2 000F74                         _RCSTA2 000F71                         _OSCCON 000FD3  
                       _PLLRDY 007E97                         _TMR0IE 007F95                         _SPBRG1 000FAF  
                       _TMR0IF 007F92                         _SPBRG2 000F75                         _TMR0IP 007F8A  
                       _SPBRGH 000FB0                         _SSPADD 000FC8          InterruptHandlerHigh@i 003F  
                       _TXREG2 000F73                         _TXSTA2 000F72                         _OneSec 004C  
                       _TmrSec 004D                   _CCPTMRS0bits 000F49                   _CCPTMRS1bits 000F48  
                   _TimerArray 00A2                      ??___lldiv 0048                         _lcd_d0 0011  
                       _lcd_d1 0012                         _lcd_d2 0013                         _lcd_d3 0014  
                       _lcd_d4 0015                         _lcd_d5 0016                         _lcd_d6 0017  
                       _lcd_d7 0018                         _lcd_en 0019                         _lcd_rs 001B  
      __end_of_Serial2_println 1664                         delay@i 0042                         clear_0 16BC  
                       clear_1 16C8                         clear_2 16D4                         _kstate 0010  
                       _pwm_on 1286                ??_INT0_CallBack 002F                   __pdataCOMRAM 004B  
              ??_INT1_CallBack 002F                      ??_pinMode 0045               __end_of_timerSet 1606  
                 __mediumconst 0000                         tblptrh 000FF7                         tblptrl 000FF6  
                       tblptru 000FF8                      ??_timerUp 0040                ??_INT2_CallBack 002F  
                    ??_pwm_out 0042                      ??_sprintf 0046                     __accesstop 0060  
      __end_of__initialization 16FA                      ?_INT0_ISR 002F                      ?_INT1_ISR 002F  
                    ?_INT2_ISR 002F                 _uart1_rx_ready 0022                    pinMode@mode 0044  
               _uart2_rx_ready 002A                 __pcstackCOMRAM 002F                  __end_of_delay 17D4  
                __end_of_setup 13E8               uart_brg_set@brgh 004A               uart_brg_set@brgl 0049  
                ?_Serial2_read 002F             keypadRead@stateOld 00CC             keypadRead@stateNew 00CB  
                ?_Serial2_putc 002F  __size_of_InterruptHandlerHigh 028C                        ??_delay 0042  
                      ??_setup 004B              _Serial2_available 18C6                  Serial2_read@d 0040  
                   __pbssBANK0 0060                     __pbssBANK1 0100                  Serial2_putc@d 0041  
                Serial2_putc@p 0040          _INT0_InterruptHandler 00BA                     ??_INT0_ISR 002F  
                   ??_INT1_ISR 002F             ?_Serial2_available 002F                     ??_INT2_ISR 002F  
        __size_of_digitalWrite 027E            ??_Serial2_available 0040          __size_of_enable_motor 0020  
                      _CCP1CON 000FBD                        _CCP2CON 000F66                        _CCP3CON 000F5D  
                      _CCP4CON 000F57                        _ECCP1AS 000FB6                        _ECCP2AS 000F64  
                      _ECCP3AS 000F5B          __end_of_disable_motor 1866               ?_Serial2_println 0042  
                      ?_pwm_on 002F                 ??_Serial2_read 0040                 ??_Serial2_putc 0040  
                      _OSCCON2 000FD2                        _OSCTUNE 000F9B                        _PWM1CON 000FB7  
                      _PWM2CON 000F65                        _PWM3CON 000F5C                   _digitalWrite 0B74  
                      _SPBRGH2 000F76      __end_of_Serial2_available 18CA                        _SSP1BUF 000FC9  
                      _SSPCON2 000FC5         InterruptHandlerHigh@dd 003D                   _enable_motor 1866  
                      __Hparam 0000                        __Lparam 0000                        _TmrRxd1 0004  
                      _TmrRxd2 0005                      ?_timerSet 00F2                        ___lldiv 13E8  
                 __psmallconst 0600                        __pcinit 16B6                        __ramtop 0600  
                      __ptext0 1886                        __ptext1 18CA                        __ptext2 189E  
                      __ptext3 133A                        __ptext4 1286                        __ptext5 17D4  
                      __ptext6 1030                        __ptext7 1166                        __ptext8 1778  
                      __ptext9 15A2         __size_of_Serial2_begin 002A                __size_of_pwm_on 00B4  
                    _T1CONbits 000FCD                      _T2CONbits 000FBA                        _pinMode 0626  
                      delay@ms 0040                        _timerUp 1778                        _pwm_out 1740  
                      _sprintf 151E                        _sysTick 00B6                  ?_uart_brg_set 00F2  
         end_of_initialization 16FA                  ??_analogInput 0040                  __Lmediumconst 0000  
               digitalRead@pin 0040                ___lldiv@divisor 0044                ___lldiv@counter 00F1  
                   ??_timerSet 0048                        postdec1 000FE5                        postdec2 000FDD  
                      postinc0 000FEE                        postinc2 000FDE                  ??_digitalRead 0040  
                    _PORTAbits 000F80          _INT1_InterruptHandler 00BC                      _PORTBbits 000F81  
                    _PORTCbits 000F82                      _PORTDbits 000F83                      _PORTEbits 000F84  
                    _TRISAbits 000F92                      _TRISBbits 000F93                      _TRISCbits 000F94  
                    _TRISDbits 000F95                      _TRISEbits 000F96     __size_of_Serial2_available 0004  
               ??_uart_brg_set 00F6                  _Serial2_begin 17D4           __end_of_Serial2_read 1740  
         __end_of_Serial2_putc 16B6              __size_of_INT0_ISR 0008              __size_of_INT1_ISR 0008  
            __size_of_INT2_ISR 0008            __end_of_analogInput 1846                  __pidataCOMRAM 18C2  
               __end_of_pwm_on 133A          __end_of_INT0_CallBack 18D2            start_initialization 16B6  
          __end_of_digitalRead 1030               keypadRead@keyOld 002E               keypadRead@keyNew 002D  
        __end_of_INT1_CallBack 18D0          __end_of_INT2_CallBack 18CE                 ?_Serial2_begin 00FA  
            uart_brg_set@speed 00F2   __end_of_InterruptHandlerHigh 0294                      _TimerFlag 0003  
                     ??_pwm_on 0046                  _uart1_rx_char 001F                    __pbssCOMRAM 0001  
                _uart2_rx_char 0027                  __pcstackBANK0 00ED                     pinMode@pin 0045  
          __end_of__stringdata 0625                     loop@i_3455 00F7                uart_brg_set@com 0048  
                  _analogInput 1824                    sprintf@flag 0046          _INT2_InterruptHandler 00BE  
                    __pintcode 0008                       ?___lldiv 0040           __end_of_uart_brg_set 1166  
            __size_of_timerSet 0064                    _digitalRead 0DF2                    __smallconst 0600  
                     ?_pinMode 0044       __size_of_Serial2_println 005E                       ?_timerUp 002F  
               __size_of_delay 002C                       ?_pwm_out 0040                ??_Serial2_begin 004B  
                     ?_sprintf 0040                 __size_of_setup 00AE          __size_of_Serial2_read 003C  
        __size_of_Serial2_putc 0052         __size_of_disable_motor 0020                       _INT0_ISR 18BA  
                     _INT1_ISR 18B2                       _INT2_ISR 18AA                       _LATAbits 000F89  
                     _LATBbits 000F8A                       _LATCbits 000F8B                       _LATDbits 000F8C  
                     _LATEbits 000F8D                       _PIE3bits 000FA3                  digitalRead@di 0041  
                 analogInput@d 0043                       _PIR1bits 000F9E                       _RCONbits 000FD0  
                     _PSTR1CON 000FB9                       _PSTR2CON 000F63                       _PSTR3CON 000F5A  
                     _VREFCON0 000F42                     _ADCON0bits 000FC2                    __stringdata 0601  
                 _Serial2_read 1704           _InterruptHandlerHigh 0008                   _Serial2_putc 1664  
                  _INTCON2bits 000FF1                    _INTCON3bits 000FF0                      copy_data0 16EE  
           Serial2_begin@speed 00FA                     _EECON1bits 000FA6                       __Hrparam 0000  
                     __Lrparam 0000                   _uart1_cr_cnt 001D                   _uart1_lf_cnt 001E  
                 _uart2_cr_cnt 0025                   _uart2_lf_cnt 0026               __size_of___lldiv 009C  
                 _uart1_rx_cnt 0020                   _uart1_rx_pos 0021                   _uart1_tx_cnt 0023  
                 _uart1_tx_pos 0024                   _uart2_rx_cnt 0028                   _uart2_rx_pos 0029  
                 _uart2_tx_cnt 002B                  _disable_motor 1846                   _uart2_tx_pos 002C  
        ?_InterruptHandlerHigh 002F               __size_of_pinMode 054E                       __ptext10 13E8  
                     __ptext11 17FE                       __ptext20 0DF2                       __ptext12 1846  
                     __ptext21 1704                       __ptext13 0B74                       __ptext30 18CE  
                     __ptext22 1606                       __ptext14 17A8                       __ptext31 18BA  
                     __ptext23 1664                       __ptext15 151E                       __ptext32 18D0  
                     __ptext24 18C6                       __ptext16 1740                       __ptext25 1484  
                     __ptext17 1866                       __ptext18 0626                       __ptext27 18AA  
                     __ptext19 1824                       __ptext28 18CC                       __ptext29 18B2  
                  _keypad_col1 0007                    _keypad_col2 0008                    _keypad_col3 0009  
                  _keypad_col4 000A               __size_of_timerUp 0030                    _keypad_mode 000B  
                     _lcd_disp 004E                    _keypad_row1 000C                    _keypad_row2 000D  
                     _lcd_cols 00C8                    _keypad_row3 000E                    _keypad_row4 000F  
                     _lcd_mode 001A                       _lcd_temp 00CA                       _lcd_rows 00C9  
             __size_of_pwm_out 0038               __size_of_sprintf 0084              ??_Serial2_println 0044  
                __size_of_main 0018                  __size_of_init 009A                  __size_of_loop 0120  
                __size_of_task 0002                  __size_of_stop 0026                  __size_of_sync 000C  
        __size_of_uart_brg_set 0136                       _timerSet 15A2                       _spi_mode 001C  
               ?_disable_motor 002F                     _INTCONbits 000FF2                      pwm_out@ch 0042  
                ?_digitalWrite 0042                    _uart1_rxbuf 0100                    _uart1_txbuf 0060  
                  _uart2_rxbuf 0160                    _uart2_txbuf 0081                   _uart_brg_set 1030  
                     intlevel2 0000                      sprintf@ap 0047                      sprintf@sp 0040  
               analogInput@ANx 0042                   ?_analogInput 002F              digitalWrite@value 0042  
             ___lldiv@dividend 0040                     _RCSTA2bits 000F71                  ?_enable_motor 002F  
       __size_of_INT0_CallBack 0002         __size_of_INT1_CallBack 0002                   ?_digitalRead 002F  
       __size_of_INT2_CallBack 0002         ??_InterruptHandlerHigh 002F                       sprintf@c 0049  
                     sprintf@f 0042               ___lldiv@quotient 00ED                  timerSet@index 0048  
                timerSet@value 00F2                 ??_digitalWrite 0043                    _SSPCON1bits 000FC6  
                  _SSPCON2bits 000FC5                digitalWrite@pin 0043                   timerUp@index 0040  
               ??_enable_motor 0046  
